c__builtin__
set
p1
((lp2
(igamelib.misc
Beauty
p3
(igamelib.data
SaveData
p4
(dp5
S'classes'
p6
(dp7
S'instance'
p8
(dp9
S'__visible'
p10
I01
sS'_rotation'
p11
F328.59046682235601
sS'_Scale'
p12
F1.9449727463003745
sS'_z_index'
p13
I18
sS'_TextureName'
p14
S'deco_tree.png'
p15
sS'__renderCallback'
p16
I01
sS'_position'
p17
(igamelib.math2d
Vector2
p18
(dp19
S'y'
F36
sS'x'
F168
sbsssbba(igamelib.misc
Beauty
p20
(igamelib.data
SaveData
p21
(dp22
g6
(dp23
S'instance'
p24
(dp25
g10
I01
sg11
F35.303766104759411
sg12
F1.304939429843964
sg13
I18
sg14
g15
sg16
I01
sg17
(igamelib.math2d
Vector2
p26
(dp27
S'y'
F604
sS'x'
F125
sbsssbba(igamelib.misc
Beauty
p28
(igamelib.data
SaveData
p29
(dp30
g6
(dp31
S'instance'
p32
(dp33
g10
I01
sg11
F291.49847662372434
sg12
F1.4504296856568701
sg13
I18
sg14
g15
sg16
I01
sg17
(igamelib.math2d
Vector2
p34
(dp35
S'y'
F633
sS'x'
F162
sbsssbba(igamelib.misc
Beauty
p36
(igamelib.data
SaveData
p37
(dp38
g6
(dp39
S'instance'
p40
(dp41
g10
I01
sg11
F169.41537822114267
sg12
F0.50179044655969851
sg13
I18
sg14
g15
sg16
I01
sg17
(igamelib.math2d
Vector2
p42
(dp43
S'y'
F36.610169491525426
sS'x'
F864.40677966101691
sbsssbba(igamelib.misc
Markable
p44
(igamelib.data
SaveData
p45
(dp46
g6
(dp47
S'instance'
p48
(dp49
g10
I01
sg11
F-270
sg12
F1
sg13
I10
sg14
S'path_straight.png'
p50
sg16
I01
sg17
(igamelib.math2d
Vector2
p51
(dp52
S'y'
F352
sS'x'
F928
sbsssbba(igamelib.misc
Beauty
p53
(igamelib.data
SaveData
p54
(dp55
g6
(dp56
S'instance'
p57
(dp58
g10
I01
sg11
F269.5869739470462
sg12
F1.7803845606823325
sg13
I18
sg14
g15
sg16
I01
sg17
(igamelib.math2d
Vector2
p59
(dp60
S'y'
F546
sS'x'
F112
sbsssbba(igamelib.misc
Beauty
p61
(igamelib.data
SaveData
p62
(dp63
g6
(dp64
S'instance'
p65
(dp66
g10
I01
sg11
F42.814363324107788
sg12
F1.1499960404349128
sg13
I18
sg14
g15
sg16
I01
sg17
(igamelib.math2d
Vector2
p67
(dp68
S'y'
F160
sS'x'
F36
sbsssbba(igamelib.misc
Beauty
p69
(igamelib.data
SaveData
p70
(dp71
g6
(dp72
S'instance'
p73
(dp74
g10
I01
sg11
F253.29256910124982
sg12
F1.6016063253463295
sg13
I18
sg14
g15
sg16
I01
sg17
(igamelib.math2d
Vector2
p75
(dp76
S'y'
F589
sS'x'
F228
sbsssbba(igamelib.misc
Beauty
p77
(igamelib.data
SaveData
p78
(dp79
g6
(dp80
S'instance'
p81
(dp82
g10
I01
sg11
F38.834194994091767
sg12
F1.9165503828404669
sg13
I18
sg14
g15
sg16
I01
sg17
(igamelib.math2d
Vector2
p83
(dp84
S'y'
F14.23728813559322
sS'x'
F898.98305084745755
sbsssbba(igamelib.misc
Beauty
p85
(igamelib.data
SaveData
p86
(dp87
g6
(dp88
S'instance'
p89
(dp90
g10
I01
sg11
F103.67835432178251
sg12
F1.5578800296170856
sg13
I18
sg14
g15
sg16
I01
sg17
(igamelib.math2d
Vector2
p91
(dp92
S'y'
F681
sS'x'
F1044
sbsssbba(igamelib.misc
Beauty
p93
(igamelib.data
SaveData
p94
(dp95
g6
(dp96
S'instance'
p97
(dp98
g10
I01
sg11
F354.86882876091386
sg12
F1.0637581943120358
sg13
I18
sg14
g15
sg16
I01
sg17
(igamelib.math2d
Vector2
p99
(dp100
S'y'
F29
sS'x'
F806
sbsssbba(igamelib.misc
Beauty
p101
(igamelib.data
SaveData
p102
(dp103
g6
(dp104
S'instance'
p105
(dp106
g10
I01
sg11
F54.731216564052289
sg12
F1.4510447146358834
sg13
I18
sg14
g15
sg16
I01
sg17
(igamelib.math2d
Vector2
p107
(dp108
S'y'
F23
sS'x'
F71
sbsssbba(igamelib.misc
Beauty
p109
(igamelib.data
SaveData
p110
(dp111
g6
(dp112
S'instance'
p113
(dp114
g10
I01
sg11
F42.862677078367717
sg12
F0.53150409021687806
sg13
I18
sg14
g15
sg16
I01
sg17
(igamelib.math2d
Vector2
p115
(dp116
S'y'
F665
sS'x'
F375
sbsssbba(igamelib.misc
Beauty
p117
(igamelib.data
SaveData
p118
(dp119
g6
(dp120
S'instance'
p121
(dp122
g10
I01
sg11
F254.06763815472411
sg12
F0.8860882697796697
sg13
I18
sg14
g15
sg16
I01
sg17
(igamelib.math2d
Vector2
p123
(dp124
S'y'
F146
sS'x'
F1084
sbsssbba(igamelib.misc
Beauty
p125
(igamelib.data
SaveData
p126
(dp127
g6
(dp128
S'instance'
p129
(dp130
g10
I01
sg11
F286.26373136964901
sg12
F0.50129569238472049
sg13
I18
sg14
g15
sg16
I01
sg17
(igamelib.math2d
Vector2
p131
(dp132
S'y'
F686
sS'x'
F355
sbsssbba(igamelib.misc
Beauty
p133
(igamelib.data
SaveData
p134
(dp135
g6
(dp136
S'instance'
p137
(dp138
g10
I01
sg11
F127.55225007298529
sg12
F0.56623581560304503
sg13
I18
sg14
g15
sg16
I01
sg17
(igamelib.math2d
Vector2
p139
(dp140
S'y'
F610
sS'x'
F380
sbsssbba(igamelib.misc
Beauty
p141
(igamelib.data
SaveData
p142
(dp143
g6
(dp144
S'instance'
p145
(dp146
g10
I01
sg11
F347.00007145575438
sg12
F1.6590343372889704
sg13
I18
sg14
g15
sg16
I01
sg17
(igamelib.math2d
Vector2
p147
(dp148
S'y'
F26
sS'x'
F520
sbsssbba(igamelib.misc
Beauty
p149
(igamelib.data
SaveData
p150
(dp151
g6
(dp152
S'instance'
p153
(dp154
g10
I01
sg11
F341.45794797085284
sg12
F1.5065171231210428
sg13
I18
sg14
g15
sg16
I01
sg17
(igamelib.math2d
Vector2
p155
(dp156
S'y'
F102.71186440677965
sS'x'
F1030.1694915254236
sbsssbba(igamelib.misc
Beauty
p157
(igamelib.data
SaveData
p158
(dp159
g6
(dp160
S'instance'
p161
(dp162
g10
I01
sg11
F192.95118993526302
sg12
F1.2640460552289332
sg13
I18
sg14
g15
sg16
I01
sg17
(igamelib.math2d
Vector2
p163
(dp164
S'y'
F375
sS'x'
F23
sbsssbba(igamelib.misc
Beauty
p165
(igamelib.data
SaveData
p166
(dp167
g6
(dp168
S'instance'
p169
(dp170
g10
I01
sg11
F48.821369484234538
sg12
F1.3727471105160778
sg13
I18
sg14
g15
sg16
I01
sg17
(igamelib.math2d
Vector2
p171
(dp172
S'y'
F254
sS'x'
F1049
sbsssbba(igamelib.misc
Beauty
p173
(igamelib.data
SaveData
p174
(dp175
g6
(dp176
S'instance'
p177
(dp178
g10
I01
sg11
F193.47205730166561
sg12
F0.60495703523239175
sg13
I18
sg14
g15
sg16
I01
sg17
(igamelib.math2d
Vector2
p179
(dp180
S'y'
F19.322033898305083
sS'x'
F274.57627118644069
sbsssbba(igamelib.misc
Beauty
p181
(igamelib.data
SaveData
p182
(dp183
g6
(dp184
S'instance'
p185
(dp186
g10
I01
sg11
F130.19487898168165
sg12
F0.54428258222977988
sg13
I18
sg14
g15
sg16
I01
sg17
(igamelib.math2d
Vector2
p187
(dp188
S'y'
F193
sS'x'
F1070
sbsssbba(igamelib.misc
Beauty
p189
(igamelib.data
SaveData
p190
(dp191
g6
(dp192
S'instance'
p193
(dp194
g10
I01
sg11
F77.606332433324127
sg12
F0.61537346041531982
sg13
I18
sg14
g15
sg16
I01
sg17
(igamelib.math2d
Vector2
p195
(dp196
S'y'
F445
sS'x'
F1053
sbsssbba(igamelib.misc
Beauty
p197
(igamelib.data
SaveData
p198
(dp199
g6
(dp200
S'instance'
p201
(dp202
g10
I01
sg11
F147.08193446796272
sg12
F0.82349810818582136
sg13
I18
sg14
g15
sg16
I01
sg17
(igamelib.math2d
Vector2
p203
(dp204
S'y'
F375
sS'x'
F6
sbsssbba(igamelib.misc
Beauty
p205
(igamelib.data
SaveData
p206
(dp207
g6
(dp208
S'instance'
p209
(dp210
g10
I01
sg11
F250.71487115660767
sg12
F0.89755134183962759
sg13
I18
sg14
g15
sg16
I01
sg17
(igamelib.math2d
Vector2
p211
(dp212
S'y'
F466
sS'x'
F37
sbsssbba(igamelib.misc
Beauty
p213
(igamelib.data
SaveData
p214
(dp215
g6
(dp216
S'instance'
p217
(dp218
g10
I01
sg11
F286.87034133597547
sg12
F0.63053232849033103
sg13
I18
sg14
g15
sg16
I01
sg17
(igamelib.math2d
Vector2
p219
(dp220
S'y'
F38
sS'x'
F1001
sbsssbba(igamelib.misc
Beauty
p221
(igamelib.data
SaveData
p222
(dp223
g6
(dp224
S'instance'
p225
(dp226
g10
I01
sg11
F197.35317414055004
sg12
F1.1144242739849373
sg13
I18
sg14
g15
sg16
I01
sg17
(igamelib.math2d
Vector2
p227
(dp228
S'y'
F27.457627118644066
sS'x'
F633.5593220338983
sbsssbba(igamelib.misc
Beauty
p229
(igamelib.data
SaveData
p230
(dp231
g6
(dp232
S'instance'
p233
(dp234
g10
I01
sg11
F47.875742988813165
sg12
F0.46380381314679181
sg13
I18
sg14
g15
sg16
I01
sg17
(igamelib.math2d
Vector2
p235
(dp236
S'y'
F663
sS'x'
F468
sbsssbba(igamelib.misc
Beauty
p237
(igamelib.data
SaveData
p238
(dp239
g6
(dp240
S'instance'
p241
(dp242
g10
I01
sg11
F30.902307056823773
sg12
F1.1606277641542639
sg13
I18
sg14
g15
sg16
I01
sg17
(igamelib.math2d
Vector2
p243
(dp244
S'y'
F517
sS'x'
F1069
sbsssbba(igamelib.misc
Beauty
p245
(igamelib.data
SaveData
p246
(dp247
g6
(dp248
S'instance'
p249
(dp250
g10
I01
sg11
F196.46471957080911
sg12
F0.48402694189668671
sg13
I18
sg14
g15
sg16
I01
sg17
(igamelib.math2d
Vector2
p251
(dp252
S'y'
F26
sS'x'
F647
sbsssbba(igamelib.buildings
Orphanage
p253
(igamelib.data
SaveData
p254
(dp255
g6
(dp256
S'instance'
p257
(dp258
g10
I01
sS'path'
p259
(igamelib.pathfinding
Path
p260
(igamelib.data
SaveData
p261
(dp262
g6
(dp263
S'instance'
p264
(dp265
g10
I01
sS'_Start'
p266
(igamelib.pathfinding
Waypoint
p267
(igamelib.data
SaveData
p268
(dp269
g6
(dp270
S'instance'
p271
(dp272
S'_previous'
p273
NsS'_next'
p274
(igamelib.pathfinding
Waypoint
p275
(igamelib.data
SaveData
p276
(dp277
g6
(dp278
S'instance'
p279
(dp280
g273
g267
sg274
(igamelib.pathfinding
Waypoint
p281
(igamelib.data
SaveData
p282
(dp283
g6
(dp284
S'instance'
p285
(dp286
g273
g275
sg274
(igamelib.pathfinding
Waypoint
p287
(igamelib.data
SaveData
p288
(dp289
g6
(dp290
S'instance'
p291
(dp292
g273
g281
sg274
(igamelib.pathfinding
Waypoint
p293
(igamelib.data
SaveData
p294
(dp295
g6
(dp296
S'instance'
p297
(dp298
g273
g287
sg274
Nsg17
(igamelib.math2d
Vector2
p299
(dp300
S'y'
F440
sS'x'
F607
sbsssbbsg17
(igamelib.math2d
Vector2
p301
(dp302
S'y'
F350.9677419354839
sS'x'
F607.964404894327
sbsssbbsg17
(igamelib.math2d
Vector2
p303
(dp304
S'y'
F350.9677419354839
sS'x'
F415.03893214682984
sbsssbbsg17
(igamelib.math2d
Vector2
p305
(dp306
S'y'
F367.34149054505008
sS'x'
F371.61290322580646
sbsssbbsg17
(igamelib.math2d
Vector2
p307
(dp308
S'y'
F343.13681868743049
sS'x'
F368.05339265850949
sbsssbbsg16
I00
sssbbsg17
(igamelib.math2d
Vector2
p309
(dp310
S'y'
F352
sS'x'
F352
sbsg11
F-360
sg16
I01
sssbba(igamelib.misc
Beauty
p311
(igamelib.data
SaveData
p312
(dp313
g6
(dp314
S'instance'
p315
(dp316
g10
I01
sg11
F187.07662131163906
sg12
F0.58162258555236979
sg13
I18
sg14
g15
sg16
I01
sg17
(igamelib.math2d
Vector2
p317
(dp318
S'y'
F685
sS'x'
F583
sbsssbba(igamelib.towers
Bunker
p319
(igamelib.data
SaveData
p320
(dp321
g6
(dp322
S'instance'
p323
(dp324
g10
I01
sg17
(igamelib.math2d
Vector2
p325
(dp326
S'y'
F288
sS'x'
F736
sbsg11
F-270
sg16
I01
sssbba(igamelib.misc
Markable
p327
(igamelib.data
SaveData
p328
(dp329
g6
(dp330
S'instance'
p331
(dp332
g10
I01
sg11
F-180
sg12
F1
sg13
I10
sg14
S'path_T.png'
p333
sg16
I01
sg17
(igamelib.math2d
Vector2
p334
(dp335
S'y'
F352
sS'x'
F608
sbsssbba(igamelib.misc
Beauty
p336
(igamelib.data
SaveData
p337
(dp338
g6
(dp339
S'instance'
p340
(dp341
g10
I01
sg11
F67.140156976303629
sg12
F1.6795909028996987
sg13
I18
sg14
g15
sg16
I01
sg17
(igamelib.math2d
Vector2
p342
(dp343
S'y'
F681
sS'x'
F492
sbsssbba(igamelib.misc
Beauty
p344
(igamelib.data
SaveData
p345
(dp346
g6
(dp347
S'instance'
p348
(dp349
g10
I01
sg11
F225.63540056800824
sg12
F1.0565661559961268
sg13
I18
sg14
g15
sg16
I01
sg17
(igamelib.math2d
Vector2
p350
(dp351
S'y'
F13.220338983050848
sS'x'
F361.01694915254234
sbsssbba(igamelib.misc
Beauty
p352
(igamelib.data
SaveData
p353
(dp354
g6
(dp355
S'instance'
p356
(dp357
g10
I01
sg11
F264.53800077082099
sg12
F1.6818113990966814
sg13
I18
sg14
g15
sg16
I01
sg17
(igamelib.math2d
Vector2
p358
(dp359
S'y'
F106
sS'x'
F45
sbsssbba(igamelib.misc
Beauty
p360
(igamelib.data
SaveData
p361
(dp362
g6
(dp363
S'instance'
p364
(dp365
g10
I01
sg11
F231.48726480529982
sg12
F1.1100906255764362
sg13
I18
sg14
g15
sg16
I01
sg17
(igamelib.math2d
Vector2
p366
(dp367
S'y'
F444
sS'x'
F19
sbsssbba(igamelib.misc
Beauty
p368
(igamelib.data
SaveData
p369
(dp370
g6
(dp371
S'instance'
p372
(dp373
g10
I01
sg11
F141.71396359300959
sg12
F1.3868287059268687
sg13
I18
sg14
g15
sg16
I01
sg17
(igamelib.math2d
Vector2
p374
(dp375
S'y'
F534
sS'x'
F340
sbsssbba(igamelib.misc
Beauty
p376
(igamelib.data
SaveData
p377
(dp378
g6
(dp379
S'instance'
p380
(dp381
g10
I01
sg11
F310.00000147864233
sg12
F0.6877635161755018
sg13
I18
sg14
g15
sg16
I01
sg17
(igamelib.math2d
Vector2
p382
(dp383
S'y'
F617
sS'x'
F1025
sbsssbba(igamelib.misc
Markable
p384
(igamelib.data
SaveData
p385
(dp386
g6
(dp387
S'instance'
p388
(dp389
g10
I01
sg11
F-270
sg12
F1
sg13
I10
sg14
S'path_straight.png'
p390
sg16
I01
sg17
(igamelib.math2d
Vector2
p391
(dp392
S'y'
F352
sS'x'
F480
sbsssbba(igamelib.misc
Beauty
p393
(igamelib.data
SaveData
p394
(dp395
g6
(dp396
S'instance'
p397
(dp398
g10
I01
sg11
F214.94282283099153
sg12
F0.59071423799748202
sg13
I18
sg14
g15
sg16
I01
sg17
(igamelib.math2d
Vector2
p399
(dp400
S'y'
F685
sS'x'
F253
sbsssbba(igamelib.misc
Beauty
p401
(igamelib.data
SaveData
p402
(dp403
g6
(dp404
S'instance'
p405
(dp406
g10
I01
sg11
F67.590073666061116
sg12
F0.69015840916038873
sg13
I18
sg14
g15
sg16
I01
sg17
(igamelib.math2d
Vector2
p407
(dp408
S'y'
F661
sS'x'
F538
sbsssbba(igamelib.misc
Beauty
p409
(igamelib.data
SaveData
p410
(dp411
g6
(dp412
S'instance'
p413
(dp414
g10
I01
sg11
F318.0568645832119
sg12
F1.3871350823771058
sg13
I18
sg14
g15
sg16
I01
sg17
(igamelib.math2d
Vector2
p415
(dp416
S'y'
F681
sS'x'
F185
sbsssbba(igamelib.misc
Beauty
p417
(igamelib.data
SaveData
p418
(dp419
g6
(dp420
S'instance'
p421
(dp422
g10
I01
sg11
F33.981612787205414
sg12
F0.55765480123753131
sg13
I18
sg14
g15
sg16
I01
sg17
(igamelib.math2d
Vector2
p423
(dp424
S'y'
F37.627118644067792
sS'x'
F700.67796610169489
sbsssbba(igamelib.misc
Markable
p425
(igamelib.data
SaveData
p426
(dp427
g6
(dp428
S'instance'
p429
(dp430
g10
I01
sg11
F-270
sg12
F1
sg13
I10
sg14
S'path_straight.png'
p431
sg16
I01
sg17
(igamelib.math2d
Vector2
p432
(dp433
S'y'
F352
sS'x'
F864
sbsssbba(igamelib.misc
Beauty
p434
(igamelib.data
SaveData
p435
(dp436
g6
(dp437
S'instance'
p438
(dp439
g10
I01
sg11
F135.99466688447208
sg12
F1.5570770436039492
sg13
I18
sg14
g15
sg16
I01
sg17
(igamelib.math2d
Vector2
p440
(dp441
S'y'
F39
sS'x'
F136
sbsssbba(igamelib.misc
Beauty
p442
(igamelib.data
SaveData
p443
(dp444
g6
(dp445
S'instance'
p446
(dp447
g10
I01
sg11
F285.69162783630878
sg12
F1.0823940317157337
sg13
I18
sg14
g15
sg16
I01
sg17
(igamelib.math2d
Vector2
p448
(dp449
S'y'
F95
sS'x'
F86
sbsssbba(igamelib.misc
Beauty
p450
(igamelib.data
SaveData
p451
(dp452
g6
(dp453
S'instance'
p454
(dp455
g10
I01
sg11
F272.8113705860369
sg12
F1.4522691069267279
sg13
I18
sg14
g15
sg16
I01
sg17
(igamelib.math2d
Vector2
p456
(dp457
S'y'
F692
sS'x'
F647
sbsssbba(igamelib.misc
Markable
p458
(igamelib.data
SaveData
p459
(dp460
g6
(dp461
S'instance'
p462
(dp463
g10
I01
sg11
F-450
sg12
F1
sg13
I10
sg14
g50
sg16
I01
sg17
(igamelib.math2d
Vector2
p464
(dp465
S'y'
F352
sS'x'
F352
sbsssbba(igamelib.misc
Beauty
p466
(igamelib.data
SaveData
p467
(dp468
g6
(dp469
S'instance'
p470
(dp471
g10
I01
sg11
F43.567600920222866
sg12
F0.63125443290150807
sg13
I18
sg14
g15
sg16
I01
sg17
(igamelib.math2d
Vector2
p472
(dp473
S'y'
F53.898305084745758
sS'x'
F1036.2711864406779
sbsssbba(igamelib.misc
Beauty
p474
(igamelib.data
SaveData
p475
(dp476
g6
(dp477
S'instance'
p478
(dp479
g10
I01
sg11
F292.15785171672945
sg12
F1.9269729332810066
sg13
I18
sg14
g15
sg16
I01
sg17
(igamelib.math2d
Vector2
p480
(dp481
S'y'
F580
sS'x'
F38
sbsssbba(igamelib.misc
Beauty
p482
(igamelib.data
SaveData
p483
(dp484
g6
(dp485
S'instance'
p486
(dp487
g10
I01
sg11
F353.87213725157039
sg12
F0.89227493126856838
sg13
I18
sg14
g15
sg16
I01
sg17
(igamelib.math2d
Vector2
p488
(dp489
S'y'
F329
sS'x'
F1069
sbsssbba(igamelib.misc
Beauty
p490
(igamelib.data
SaveData
p491
(dp492
g6
(dp493
S'instance'
p494
(dp495
g10
I01
sg11
F269.64654576393275
sg12
F1.0665236836034118
sg13
I18
sg14
g15
sg16
I01
sg17
(igamelib.math2d
Vector2
p496
(dp497
S'y'
F62
sS'x'
F1047
sbsssbba(igamelib.misc
Markable
p498
(igamelib.data
SaveData
p499
(dp500
g6
(dp501
S'instance'
p502
(dp503
g10
I01
sg11
F-270
sg12
F1
sg13
I10
sg14
g390
sg16
I01
sg17
(igamelib.math2d
Vector2
p504
(dp505
S'y'
F352
sS'x'
F416
sbsssbba(igamelib.misc
Beauty
p506
(igamelib.data
SaveData
p507
(dp508
g6
(dp509
S'instance'
p510
(dp511
g10
I01
sg11
F60.018781155631082
sg12
F0.46591246078404053
sg13
I18
sg14
g15
sg16
I01
sg17
(igamelib.math2d
Vector2
p512
(dp513
S'y'
F644
sS'x'
F792
sbsssbba(igamelib.misc
Markable
p514
(igamelib.data
SaveData
p515
(dp516
g6
(dp517
S'instance'
p518
(dp519
g10
I01
sg11
F-270
sg12
F1
sg13
I10
sg14
g390
sg16
I01
sg17
(igamelib.math2d
Vector2
p520
(dp521
S'y'
F352
sS'x'
F672
sbsssbba(igamelib.misc
Beauty
p522
(igamelib.data
SaveData
p523
(dp524
g6
(dp525
S'instance'
p526
(dp527
g10
I01
sg11
F52.968494956750668
sg12
F1.3243543866245879
sg13
I18
sg14
g15
sg16
I01
sg17
(igamelib.math2d
Vector2
p528
(dp529
S'y'
F586
sS'x'
F330
sbsssbba(igamelib.misc
Beauty
p530
(igamelib.data
SaveData
p531
(dp532
g6
(dp533
S'instance'
p534
(dp535
g10
I01
sg11
F17.725251410373172
sg12
F0.77531045252588426
sg13
I18
sg14
g15
sg16
I01
sg17
(igamelib.math2d
Vector2
p536
(dp537
S'y'
F223
sS'x'
F47
sbsssbba(igamelib.misc
Beauty
p538
(igamelib.data
SaveData
p539
(dp540
g6
(dp541
S'instance'
p542
(dp543
g10
I01
sg11
F24.95861344057813
sg12
F1.7894439018098602
sg13
I18
sg14
g15
sg16
I01
sg17
(igamelib.math2d
Vector2
p544
(dp545
S'y'
F11.1864406779661
sS'x'
F718.98305084745755
sbsssbba(igamelib.misc
Markable
p546
(igamelib.data
SaveData
p547
(dp548
g6
(dp549
S'instance'
p550
(dp551
g10
I01
sg11
F0
sg12
F1
sg13
I10
sg14
g390
sg16
I01
sg17
(igamelib.math2d
Vector2
p552
(dp553
S'y'
F416
sS'x'
F608
sbsssbba(igamelib.misc
Beauty
p554
(igamelib.data
SaveData
p555
(dp556
g6
(dp557
S'instance'
p558
(dp559
g10
I01
sg11
F249.03406657676121
sg12
F1.8387008446669584
sg13
I18
sg14
g15
sg16
I01
sg17
(igamelib.math2d
Vector2
p560
(dp561
S'y'
F700
sS'x'
F709
sbsssbba(igamelib.misc
Beauty
p562
(igamelib.data
SaveData
p563
(dp564
g6
(dp565
S'instance'
p566
(dp567
g10
I01
sg11
F318.85557540182606
sg12
F1.0756383421769504
sg13
I18
sg14
g15
sg16
I01
sg17
(igamelib.math2d
Vector2
p568
(dp569
S'y'
F64
sS'x'
F315
sbsssbba(igamelib.misc
Beauty
p570
(igamelib.data
SaveData
p571
(dp572
g6
(dp573
S'instance'
p574
(dp575
g10
I01
sg11
F185.19447022641657
sg12
F0.63463375422149937
sg13
I18
sg14
g15
sg16
I01
sg17
(igamelib.math2d
Vector2
p576
(dp577
S'y'
F571
sS'x'
F250
sbsssbba(igamelib.misc
Beauty
p578
(igamelib.data
SaveData
p579
(dp580
g6
(dp581
S'instance'
p582
(dp583
g10
I01
sg11
F258.22194168064465
sg12
F1.2917710034052465
sg13
I18
sg14
g15
sg16
I01
sg17
(igamelib.math2d
Vector2
p584
(dp585
S'y'
F40
sS'x'
F428
sbsssbba(igamelib.misc
Beauty
p586
(igamelib.data
SaveData
p587
(dp588
g6
(dp589
S'instance'
p590
(dp591
g10
I01
sg11
F134.35638037751619
sg12
F1.087245832185181
sg13
I18
sg14
g15
sg16
I01
sg17
(igamelib.math2d
Vector2
p592
(dp593
S'y'
F218
sS'x'
F145
sbsssbba(igamelib.misc
Beauty
p594
(igamelib.data
SaveData
p595
(dp596
g6
(dp597
S'instance'
p598
(dp599
g10
I01
sg11
F147.17920510320758
sg12
F0.45537315178057858
sg13
I18
sg14
g15
sg16
I01
sg17
(igamelib.math2d
Vector2
p600
(dp601
S'y'
F666
sS'x'
F873
sbsssbba(igamelib.buildings
HQ
p602
(igamelib.data
SaveData
p603
(dp604
g6
(dp605
S'instance'
p606
(dp607
g10
I01
sg17
(igamelib.math2d
Vector2
p608
(dp609
S'y'
F480
sS'x'
F608
sbsg11
F0
sg16
I01
sssbba(igamelib.misc
Beauty
p610
(igamelib.data
SaveData
p611
(dp612
g6
(dp613
S'instance'
p614
(dp615
g10
I01
sg11
F28.413551026980812
sg12
F1.056710792787557
sg13
I18
sg14
g15
sg16
I01
sg17
(igamelib.math2d
Vector2
p616
(dp617
S'y'
F57
sS'x'
F725
sbsssbba(igamelib.misc
Beauty
p618
(igamelib.data
SaveData
p619
(dp620
g6
(dp621
S'instance'
p622
(dp623
g10
I01
sg11
F202.28891074793893
sg12
F1.531957286725554
sg13
I18
sg14
g15
sg16
I01
sg17
(igamelib.math2d
Vector2
p624
(dp625
S'y'
F587
sS'x'
F383
sbsssbba(igamelib.misc
Beauty
p626
(igamelib.data
SaveData
p627
(dp628
g6
(dp629
S'instance'
p630
(dp631
g10
I01
sg11
F308.58628824577011
sg12
F1.4406558510239804
sg13
I18
sg14
g15
sg16
I01
sg17
(igamelib.math2d
Vector2
p632
(dp633
S'y'
F25
sS'x'
F354
sbsssbba(igamelib.misc
Markable
p634
(igamelib.data
SaveData
p635
(dp636
g6
(dp637
S'instance'
p638
(dp639
g10
I01
sg11
F-270
sg12
F1
sg13
I10
sg14
g390
sg16
I01
sg17
(igamelib.math2d
Vector2
p640
(dp641
S'y'
F352
sS'x'
F736
sbsssbba(igamelib.misc
Beauty
p642
(igamelib.data
SaveData
p643
(dp644
g6
(dp645
S'instance'
p646
(dp647
g10
I01
sg11
F227.43755454778787
sg12
F1.2527847918147457
sg13
I18
sg14
g15
sg16
I01
sg17
(igamelib.math2d
Vector2
p648
(dp649
S'y'
F24.406779661016948
sS'x'
F586.77966101694915
sbsssbba(igamelib.buildings
Orphanage
p650
(igamelib.data
SaveData
p651
(dp652
g6
(dp653
S'instance'
p654
(dp655
g10
I01
sg259
(igamelib.pathfinding
Path
p656
(igamelib.data
SaveData
p657
(dp658
g6
(dp659
S'instance'
p660
(dp661
g10
I01
sg266
(igamelib.pathfinding
Waypoint
p662
(igamelib.data
SaveData
p663
(dp664
g6
(dp665
S'instance'
p666
(dp667
g273
Nsg274
(igamelib.pathfinding
Waypoint
p668
(igamelib.data
SaveData
p669
(dp670
g6
(dp671
S'instance'
p672
(dp673
g273
g662
sg274
(igamelib.pathfinding
Waypoint
p674
(igamelib.data
SaveData
p675
(dp676
g6
(dp677
S'instance'
p678
(dp679
g273
g668
sg274
(igamelib.pathfinding
Waypoint
p680
(igamelib.data
SaveData
p681
(dp682
g6
(dp683
S'instance'
p684
(dp685
g273
g674
sg274
(igamelib.pathfinding
Waypoint
p686
(igamelib.data
SaveData
p687
(dp688
g6
(dp689
S'instance'
p690
(dp691
g273
g680
sg274
Nsg17
(igamelib.math2d
Vector2
p692
(dp693
S'y'
F439
sS'x'
F608
sbsssbbsg17
(igamelib.math2d
Vector2
p694
(dp695
S'y'
F350.9677419354839
sS'x'
F608.67630700778648
sbsssbbsg17
(igamelib.math2d
Vector2
p696
(dp697
S'y'
F350.25583982202448
sS'x'
F866.38487208008905
sbsssbbsg17
(igamelib.math2d
Vector2
p698
(dp699
S'y'
F339.57730812013347
sS'x'
F904.11568409343715
sbsssbbsg17
(igamelib.math2d
Vector2
p700
(dp701
S'y'
F367.34149054505008
sS'x'
F907.67519466073418
sbsssbbsg16
I00
sssbbsg17
(igamelib.math2d
Vector2
p702
(dp703
S'y'
F352
sS'x'
F928
sbsg11
F-180
sg16
I01
sssbba(igamelib.misc
Beauty
p704
(igamelib.data
SaveData
p705
(dp706
g6
(dp707
S'instance'
p708
(dp709
g10
I01
sg11
F6.5038486761489533
sg12
F1.9481309377806979
sg13
I18
sg14
g15
sg16
I01
sg17
(igamelib.math2d
Vector2
p710
(dp711
S'y'
F490
sS'x'
F38
sbsssbba(igamelib.misc
Beauty
p712
(igamelib.data
SaveData
p713
(dp714
g6
(dp715
S'instance'
p716
(dp717
g10
I01
sg11
F239.94521616928941
sg12
F1.8112210488994731
sg13
I18
sg14
g15
sg16
I01
sg17
(igamelib.math2d
Vector2
p718
(dp719
S'y'
F340
sS'x'
F42
sbsssbba(igamelib.misc
Beauty
p720
(igamelib.data
SaveData
p721
(dp722
g6
(dp723
S'instance'
p724
(dp725
g10
I01
sg11
F343.68941720203952
sg12
F1.2964745870297059
sg13
I18
sg14
g15
sg16
I01
sg17
(igamelib.math2d
Vector2
p726
(dp727
S'y'
F217
sS'x'
F26
sbsssbba(igamelib.misc
Beauty
p728
(igamelib.data
SaveData
p729
(dp730
g6
(dp731
S'instance'
p732
(dp733
g10
I01
sg11
F40.316649981979367
sg12
F0.83138738717376781
sg13
I18
sg14
g15
sg16
I01
sg17
(igamelib.math2d
Vector2
p734
(dp735
S'y'
F699
sS'x'
F1020
sbsssbba(igamelib.misc
Beauty
p736
(igamelib.data
SaveData
p737
(dp738
g6
(dp739
S'instance'
p740
(dp741
g10
I01
sg11
F13.352127517403897
sg12
F0.93072650622383235
sg13
I18
sg14
g15
sg16
I01
sg17
(igamelib.math2d
Vector2
p742
(dp743
S'y'
F481
sS'x'
F41
sbsssbba(igamelib.misc
Beauty
p744
(igamelib.data
SaveData
p745
(dp746
g6
(dp747
S'instance'
p748
(dp749
g10
I01
sg11
F221.62145816514322
sg12
F0.91032997904167368
sg13
I18
sg14
g15
sg16
I01
sg17
(igamelib.math2d
Vector2
p750
(dp751
S'y'
F559
sS'x'
F272
sbsssbba(igamelib.misc
Beauty
p752
(igamelib.data
SaveData
p753
(dp754
g6
(dp755
S'instance'
p756
(dp757
g10
I01
sg11
F90.018507185878249
sg12
F1.2401090966737836
sg13
I18
sg14
g15
sg16
I01
sg17
(igamelib.math2d
Vector2
p758
(dp759
S'y'
F296
sS'x'
F20
sbsssbba(igamelib.misc
Markable
p760
(igamelib.data
SaveData
p761
(dp762
g6
(dp763
S'instance'
p764
(dp765
g10
I01
sg11
F-270
sg12
F1
sg13
I10
sg14
g390
sg16
I01
sg17
(igamelib.math2d
Vector2
p766
(dp767
S'y'
F352
sS'x'
F544
sbsssbba(igamelib.misc
Beauty
p768
(igamelib.data
SaveData
p769
(dp770
g6
(dp771
S'instance'
p772
(dp773
g10
I01
sg11
F92.20471252162703
sg12
F1.737409794078592
sg13
I18
sg14
g15
sg16
I01
sg17
(igamelib.math2d
Vector2
p774
(dp775
S'y'
F25
sS'x'
F205
sbsssbba(igamelib.misc
Beauty
p776
(igamelib.data
SaveData
p777
(dp778
g6
(dp779
S'instance'
p780
(dp781
g10
I01
sg11
F37.492430840508803
sg12
F1.7971522321444922
sg13
I18
sg14
g15
sg16
I01
sg17
(igamelib.math2d
Vector2
p782
(dp783
S'y'
F29.491525423728813
sS'x'
F974.23728813559319
sbsssbba(igamelib.misc
Beauty
p784
(igamelib.data
SaveData
p785
(dp786
g6
(dp787
S'instance'
p788
(dp789
g10
I01
sg11
F51.85162192705026
sg12
F1.7976252935056931
sg13
I18
sg14
g15
sg16
I01
sg17
(igamelib.math2d
Vector2
p790
(dp791
S'y'
F705
sS'x'
F794
sbsssbba(igamelib.misc
Beauty
p792
(igamelib.data
SaveData
p793
(dp794
g6
(dp795
S'instance'
p796
(dp797
g10
I01
sg11
F113.17715420437563
sg12
F0.64109863470006134
sg13
I18
sg14
g15
sg16
I01
sg17
(igamelib.math2d
Vector2
p798
(dp799
S'y'
F49
sS'x'
F121
sbsssbba(igamelib.misc
Beauty
p800
(igamelib.data
SaveData
p801
(dp802
g6
(dp803
S'instance'
p804
(dp805
g10
I01
sg11
F42.822366031039955
sg12
F1.5307103055725291
sg13
I18
sg14
g15
sg16
I01
sg17
(igamelib.math2d
Vector2
p806
(dp807
S'y'
F681
sS'x'
F871
sbsssbba(igamelib.misc
Beauty
p808
(igamelib.data
SaveData
p809
(dp810
g6
(dp811
S'instance'
p812
(dp813
g10
I01
sg11
F173.65788881236276
sg12
F1.4387554424152857
sg13
I18
sg14
g15
sg16
I01
sg17
(igamelib.math2d
Vector2
p814
(dp815
S'y'
F610
sS'x'
F277
sbsssbba(igamelib.misc
Beauty
p816
(igamelib.data
SaveData
p817
(dp818
g6
(dp819
S'instance'
p820
(dp821
g10
I01
sg11
F156.65468134261826
sg12
F1.3608836842840035
sg13
I18
sg14
g15
sg16
I01
sg17
(igamelib.math2d
Vector2
p822
(dp823
S'y'
F12.203389830508474
sS'x'
F314.23728813559319
sbsssbba(igamelib.misc
Beauty
p824
(igamelib.data
SaveData
p825
(dp826
g6
(dp827
S'instance'
p828
(dp829
g10
I01
sg11
F121.44403140501471
sg12
F1.2973898067135616
sg13
I18
sg14
g15
sg16
I01
sg17
(igamelib.math2d
Vector2
p830
(dp831
S'y'
F705
sS'x'
F938
sbsssbba(igamelib.misc
Beauty
p832
(igamelib.data
SaveData
p833
(dp834
g6
(dp835
S'instance'
p836
(dp837
g10
I01
sg11
F310.16365815783598
sg12
F0.74259285991337842
sg13
I18
sg14
g15
sg16
I01
sg17
(igamelib.math2d
Vector2
p838
(dp839
S'y'
F244
sS'x'
F69
sbsssbba(igamelib.misc
Beauty
p840
(igamelib.data
SaveData
p841
(dp842
g6
(dp843
S'instance'
p844
(dp845
g10
I01
sg11
F170.99147554035997
sg12
F0.77662837977888488
sg13
I18
sg14
g15
sg16
I01
sg17
(igamelib.math2d
Vector2
p846
(dp847
S'y'
F151
sS'x'
F72
sbsssbba(igamelib.misc
Beauty
p848
(igamelib.data
SaveData
p849
(dp850
g6
(dp851
S'instance'
p852
(dp853
g10
I01
sg11
F292.79871064677366
sg12
F1.3175521971675364
sg13
I18
sg14
g15
sg16
I01
sg17
(igamelib.math2d
Vector2
p854
(dp855
S'y'
F67
sS'x'
F302
sbsssbba(igamelib.misc
Beauty
p856
(igamelib.data
SaveData
p857
(dp858
g6
(dp859
S'instance'
p860
(dp861
g10
I01
sg11
F39.558263394740301
sg12
F1.6713783721706503
sg13
I18
sg14
g15
sg16
I01
sg17
(igamelib.math2d
Vector2
p862
(dp863
S'y'
F576
sS'x'
F1066
sbsssbba(igamelib.misc
Beauty
p864
(igamelib.data
SaveData
p865
(dp866
g6
(dp867
S'instance'
p868
(dp869
g10
I01
sg11
F216.70931566014235
sg12
F1.0579923714352861
sg13
I18
sg14
g15
sg16
I01
sg17
(igamelib.math2d
Vector2
p870
(dp871
S'y'
F640
sS'x'
F966
sbsssbba(igamelib.misc
Beauty
p872
(igamelib.data
SaveData
p873
(dp874
g6
(dp875
S'instance'
p876
(dp877
g10
I01
sg11
F61.403350841488844
sg12
F1.3300021325706248
sg13
I18
sg14
g15
sg16
I01
sg17
(igamelib.math2d
Vector2
p878
(dp879
S'y'
F684
sS'x'
F1060
sbsssbba(igamelib.misc
Beauty
p880
(igamelib.data
SaveData
p881
(dp882
g6
(dp883
S'instance'
p884
(dp885
g10
I01
sg11
F26.96097995785934
sg12
F1.6000414646352734
sg13
I18
sg14
g15
sg16
I01
sg17
(igamelib.math2d
Vector2
p886
(dp887
S'y'
F56
sS'x'
F45
sbsssbba(igamelib.misc
Beauty
p888
(igamelib.data
SaveData
p889
(dp890
g6
(dp891
S'instance'
p892
(dp893
g10
I01
sg11
F204.90846050421564
sg12
F1.303890102243568
sg13
I18
sg14
g15
sg16
I01
sg17
(igamelib.math2d
Vector2
p894
(dp895
S'y'
F660
sS'x'
F720
sbsssbba(igamelib.misc
Beauty
p896
(igamelib.data
SaveData
p897
(dp898
g6
(dp899
S'instance'
p900
(dp901
g10
I01
sg11
F332.64479287707474
sg12
F1.3063283584046179
sg13
I18
sg14
g15
sg16
I01
sg17
(igamelib.math2d
Vector2
p902
(dp903
S'y'
F654
sS'x'
F338
sbsssbba(igamelib.misc
Beauty
p904
(igamelib.data
SaveData
p905
(dp906
g6
(dp907
S'instance'
p908
(dp909
g10
I01
sg11
F140.72084142638994
sg12
F1.2745691644172124
sg13
I18
sg14
g15
sg16
I01
sg17
(igamelib.math2d
Vector2
p910
(dp911
S'y'
F682
sS'x'
F414
sbsssbba(igamelib.misc
Beauty
p912
(igamelib.data
SaveData
p913
(dp914
g6
(dp915
S'instance'
p916
(dp917
g10
I01
sg11
F204.42205393833299
sg12
F1.2651042426354435
sg13
I18
sg14
g15
sg16
I01
sg17
(igamelib.math2d
Vector2
p918
(dp919
S'y'
F684
sS'x'
F91
sbsssbba(igamelib.misc
Markable
p920
(igamelib.data
SaveData
p921
(dp922
g6
(dp923
S'instance'
p924
(dp925
g10
I01
sg11
F-270
sg12
F1
sg13
I10
sg14
g390
sg16
I01
sg17
(igamelib.math2d
Vector2
p926
(dp927
S'y'
F352
sS'x'
F800
sbsssbba(igamelib.misc
Beauty
p928
(igamelib.data
SaveData
p929
(dp930
g6
(dp931
S'instance'
p932
(dp933
g10
I01
sg11
F356.52693011252188
sg12
F0.95847437468286811
sg13
I18
sg14
g15
sg16
I01
sg17
(igamelib.math2d
Vector2
p934
(dp935
S'y'
F87
sS'x'
F99
sbsssbba(igamelib.misc
Beauty
p936
(igamelib.data
SaveData
p937
(dp938
g6
(dp939
S'instance'
p940
(dp941
g10
I01
sg11
F-47.042035089423955
sg12
F1.3110010912169683
sg13
I18
sg14
g15
sg16
I01
sg17
(igamelib.math2d
Vector2
p942
(dp943
S'y'
F681
sS'x'
F25
sbsssbba(igamelib.misc
Beauty
p944
(igamelib.data
SaveData
p945
(dp946
g6
(dp947
S'instance'
p948
(dp949
g10
I01
sg11
F240.89641089980219
sg12
F0.94124011339127034
sg13
I18
sg14
g15
sg16
I01
sg17
(igamelib.math2d
Vector2
p950
(dp951
S'y'
F6.101694915254237
sS'x'
F873.5593220338983
sbsssbba(igamelib.misc
Beauty
p952
(igamelib.data
SaveData
p953
(dp954
g6
(dp955
S'instance'
p956
(dp957
g10
I01
sg11
F245.40614577446649
sg12
F1.4265403501580076
sg13
I18
sg14
g15
sg16
I01
sg17
(igamelib.math2d
Vector2
p958
(dp959
S'y'
F670
sS'x'
F271
sbsssbba(igamelib.misc
Beauty
p960
(igamelib.data
SaveData
p961
(dp962
g6
(dp963
S'instance'
p964
(dp965
g10
I01
sg11
F350.51905909929161
sg12
F1.8381295667464774
sg13
I18
sg14
g15
sg16
I01
sg17
(igamelib.math2d
Vector2
p966
(dp967
S'y'
F39
sS'x'
F198
sbsssbba(igamelib.towers
Bunker
p968
(igamelib.data
SaveData
p969
(dp970
g6
(dp971
S'instance'
p972
(dp973
g10
I01
sg17
(igamelib.math2d
Vector2
p974
(dp975
S'y'
F416
sS'x'
F736
sbsg11
F-270
sg16
I01
sssbba(igamelib.misc
Beauty
p976
(igamelib.data
SaveData
p977
(dp978
g6
(dp979
S'instance'
p980
(dp981
g10
I01
sg11
F300.24675980742535
sg12
F0.84600147421169769
sg13
I18
sg14
g15
sg16
I01
sg17
(igamelib.math2d
Vector2
p982
(dp983
S'y'
F348
sS'x'
F39
sbsssbba(igamelib.misc
Beauty
p984
(igamelib.data
SaveData
p985
(dp986
g6
(dp987
S'instance'
p988
(dp989
g10
I01
sg11
F256.91292257364222
sg12
F1.8043332250815594
sg13
I18
sg14
g15
sg16
I01
sg17
(igamelib.math2d
Vector2
p990
(dp991
S'y'
F382
sS'x'
F1064
sbsssbbatRp992
.