c__builtin__
set
p1
((lp2
(igamelib.misc
Markable
p3
(igamelib.data
SaveData
p4
(dp5
S'classes'
p6
(dp7
S'instance'
p8
(dp9
S'__visible'
p10
I01
sS'_rotation'
p11
F-1350
sS'_Scale'
p12
F1
sS'_z_index'
p13
I10
sS'_TextureName'
p14
S'path_straight.png'
p15
sS'__renderCallback'
p16
I01
sS'_position'
p17
(igamelib.math2d
Vector2
p18
(dp19
S'y'
F224
sS'x'
F928
sbsssbba(igamelib.misc
Beauty
p20
(igamelib.data
SaveData
p21
(dp22
g6
(dp23
S'instance'
p24
(dp25
g10
I01
sg11
F231.48441386222149
sg12
F1.1945643746789325
sg13
I18
sg14
S'deco_tree.png'
p26
sg16
I01
sg17
(igamelib.math2d
Vector2
p27
(dp28
S'y'
F13
sS'x'
F1022
sbsssbba(igamelib.towers
Bunker
p29
(igamelib.data
SaveData
p30
(dp31
g6
(dp32
S'instance'
p33
(dp34
g10
I01
sg17
(igamelib.math2d
Vector2
p35
(dp36
S'y'
F352
sS'x'
F800
sbsg11
F-1620
sg16
I01
sssbba(igamelib.misc
Markable
p37
(igamelib.data
SaveData
p38
(dp39
g6
(dp40
S'instance'
p41
(dp42
g10
I01
sg11
F-1170
sg12
F1
sg13
I10
sg14
S'path_corner.png'
p43
sg16
I01
sg17
(igamelib.math2d
Vector2
p44
(dp45
S'y'
F224
sS'x'
F480
sbsssbba(igamelib.misc
Beauty
p46
(igamelib.data
SaveData
p47
(dp48
g6
(dp49
S'instance'
p50
(dp51
g10
I01
sg11
F154.50058721954767
sg12
F1.8373887814401721
sg13
I18
sg14
g26
sg16
I01
sg17
(igamelib.math2d
Vector2
p52
(dp53
S'y'
F663
sS'x'
F515
sbsssbba(igamelib.misc
Markable
p54
(igamelib.data
SaveData
p55
(dp56
g6
(dp57
S'instance'
p58
(dp59
g10
I01
sg11
F-1350
sg12
F1
sg13
I10
sg14
g15
sg16
I01
sg17
(igamelib.math2d
Vector2
p60
(dp61
S'y'
F224
sS'x'
F544
sbsssbba(igamelib.buildings
Orphanage
p62
(igamelib.data
SaveData
p63
(dp64
g6
(dp65
S'instance'
p66
(dp67
g10
I01
sS'path'
p68
(igamelib.pathfinding
Path
p69
(igamelib.data
SaveData
p70
(dp71
g6
(dp72
S'instance'
p73
(dp74
g10
I01
sS'_Start'
p75
(igamelib.pathfinding
Waypoint
p76
(igamelib.data
SaveData
p77
(dp78
g6
(dp79
S'instance'
p80
(dp81
S'_previous'
p82
NsS'_next'
p83
(igamelib.pathfinding
Waypoint
p84
(igamelib.data
SaveData
p85
(dp86
g6
(dp87
S'instance'
p88
(dp89
g82
g76
sg83
(igamelib.pathfinding
Waypoint
p90
(igamelib.data
SaveData
p91
(dp92
g6
(dp93
S'instance'
p94
(dp95
g82
g84
sg83
(igamelib.pathfinding
Waypoint
p96
(igamelib.data
SaveData
p97
(dp98
g6
(dp99
S'instance'
p100
(dp101
g82
g90
sg83
(igamelib.pathfinding
Waypoint
p102
(igamelib.data
SaveData
p103
(dp104
g6
(dp105
S'instance'
p106
(dp107
g82
g96
sg83
(igamelib.pathfinding
Waypoint
p108
(igamelib.data
SaveData
p109
(dp110
g6
(dp111
S'instance'
p112
(dp113
g82
g102
sg83
(igamelib.pathfinding
Waypoint
p114
(igamelib.data
SaveData
p115
(dp116
g6
(dp117
S'instance'
p118
(dp119
g82
g108
sg83
Nsg17
(igamelib.math2d
Vector2
p120
(dp121
S'y'
F570.2335928809789
sS'x'
F736.10678531701899
sbsssbbsg17
(igamelib.math2d
Vector2
p122
(dp123
S'y'
F224.2491657397108
sS'x'
F736.10678531701899
sbsssbbsg17
(igamelib.math2d
Vector2
p124
(dp125
S'y'
F223.53726362625139
sS'x'
F480.53392658509455
sbsssbbsg17
(igamelib.math2d
Vector2
p126
(dp127
S'y'
F288.32035595105674
sS'x'
F481.24582869855396
sbsssbbsg17
(igamelib.math2d
Vector2
p128
(dp129
S'y'
F288.32035595105674
sS'x'
F399.37708565072302
sbsssbbsg17
(igamelib.math2d
Vector2
p130
(dp131
S'y'
F303.27030033370414
sS'x'
F376.59621802002226
sbsssbbsg17
(igamelib.math2d
Vector2
p132
(dp133
S'y'
F274.79421579532817
sS'x'
F370.18909899888769
sbsssbbsg16
I00
sssbbsg17
(igamelib.math2d
Vector2
p134
(dp135
S'y'
F288
sS'x'
F352
sbsg11
F-1800
sg16
I01
sssbba(igamelib.misc
Beauty
p136
(igamelib.data
SaveData
p137
(dp138
g6
(dp139
S'instance'
p140
(dp141
g10
I01
sg11
F222.48427816333819
sg12
F1.6817345931837659
sg13
I18
sg14
g26
sg16
I01
sg17
(igamelib.math2d
Vector2
p142
(dp143
S'y'
F5
sS'x'
F664
sbsssbba(igamelib.misc
Markable
p144
(igamelib.data
SaveData
p145
(dp146
g6
(dp147
S'instance'
p148
(dp149
g10
I01
sg11
F-1350
sg12
F1
sg13
I10
sg14
g15
sg16
I01
sg17
(igamelib.math2d
Vector2
p150
(dp151
S'y'
F224
sS'x'
F864
sbsssbba(igamelib.misc
Markable
p152
(igamelib.data
SaveData
p153
(dp154
g6
(dp155
S'instance'
p156
(dp157
g10
I01
sg11
F-1710
sg12
F1
sg13
I10
sg14
S'path_T.png'
p158
sg16
I01
sg17
(igamelib.math2d
Vector2
p159
(dp160
S'y'
F288
sS'x'
F480
sbsssbba(igamelib.misc
Beauty
p161
(igamelib.data
SaveData
p162
(dp163
g6
(dp164
S'instance'
p165
(dp166
g10
I01
sg11
F264.66345078461467
sg12
F0.46799833891595355
sg13
I18
sg14
g26
sg16
I01
sg17
(igamelib.math2d
Vector2
p167
(dp168
S'y'
F658
sS'x'
F954
sbsssbba(igamelib.misc
Markable
p169
(igamelib.data
SaveData
p170
(dp171
g6
(dp172
S'instance'
p173
(dp174
g10
I01
sg11
F-1890
sg12
F1
sg13
I10
sg14
g15
sg16
I01
sg17
(igamelib.math2d
Vector2
p175
(dp176
S'y'
F288
sS'x'
F352
sbsssbba(igamelib.misc
Markable
p177
(igamelib.data
SaveData
p178
(dp179
g6
(dp180
S'instance'
p181
(dp182
g10
I01
sg11
F-1260
sg12
F1
sg13
I10
sg14
g15
sg16
I01
sg17
(igamelib.math2d
Vector2
p183
(dp184
S'y'
F480
sS'x'
F480
sbsssbba(igamelib.misc
Markable
p185
(igamelib.data
SaveData
p186
(dp187
g6
(dp188
S'instance'
p189
(dp190
g10
I01
sg11
F-1260
sg12
F1
sg13
I10
sg14
g15
sg16
I01
sg17
(igamelib.math2d
Vector2
p191
(dp192
S'y'
F480
sS'x'
F736
sbsssbba(igamelib.misc
Beauty
p193
(igamelib.data
SaveData
p194
(dp195
g6
(dp196
S'instance'
p197
(dp198
g10
I01
sg11
F39.482896360128223
sg12
F0.5025052246190318
sg13
I18
sg14
g26
sg16
I01
sg17
(igamelib.math2d
Vector2
p199
(dp200
S'y'
F547
sS'x'
F895
sbsssbba(igamelib.misc
Beauty
p201
(igamelib.data
SaveData
p202
(dp203
g6
(dp204
S'instance'
p205
(dp206
g10
I01
sg11
F181.6636098637602
sg12
F0.50216233362259399
sg13
I18
sg14
g26
sg16
I01
sg17
(igamelib.math2d
Vector2
p207
(dp208
S'y'
F290
sS'x'
F671
sbsssbba(igamelib.misc
Markable
p209
(igamelib.data
SaveData
p210
(dp211
g6
(dp212
S'instance'
p213
(dp214
g10
I01
sg11
F-1260
sg12
F1
sg13
I10
sg14
g15
sg16
I01
sg17
(igamelib.math2d
Vector2
p215
(dp216
S'y'
F352
sS'x'
F736
sbsssbba(igamelib.misc
Beauty
p217
(igamelib.data
SaveData
p218
(dp219
g6
(dp220
S'instance'
p221
(dp222
g10
I01
sg11
F167.97019834306505
sg12
F0.93380813270571794
sg13
I18
sg14
g26
sg16
I01
sg17
(igamelib.math2d
Vector2
p223
(dp224
S'y'
F662
sS'x'
F576
sbsssbba(igamelib.towers
Bunker
p225
(igamelib.data
SaveData
p226
(dp227
g6
(dp228
S'instance'
p229
(dp230
g10
I01
sg17
(igamelib.math2d
Vector2
p231
(dp232
S'y'
F160
sS'x'
F608
sbsg11
F-1620
sg16
I01
sssbba(igamelib.misc
Beauty
p233
(igamelib.data
SaveData
p234
(dp235
g6
(dp236
S'instance'
p237
(dp238
g10
I01
sg11
F328.38796393139421
sg12
F1.2189081477617276
sg13
I18
sg14
g26
sg16
I01
sg17
(igamelib.math2d
Vector2
p239
(dp240
S'y'
F647
sS'x'
F184
sbsssbba(igamelib.misc
Beauty
p241
(igamelib.data
SaveData
p242
(dp243
g6
(dp244
S'instance'
p245
(dp246
g10
I01
sg11
F177.22628677387829
sg12
F1.8158589446203617
sg13
I18
sg14
g26
sg16
I01
sg17
(igamelib.math2d
Vector2
p247
(dp248
S'y'
F628
sS'x'
F95
sbsssbba(igamelib.misc
Beauty
p249
(igamelib.data
SaveData
p250
(dp251
g6
(dp252
S'instance'
p253
(dp254
g10
I01
sg11
F78.759617237657523
sg12
F1.5032475960963483
sg13
I18
sg14
g26
sg16
I01
sg17
(igamelib.math2d
Vector2
p255
(dp256
S'y'
F74
sS'x'
F72
sbsssbba(igamelib.misc
Beauty
p257
(igamelib.data
SaveData
p258
(dp259
g6
(dp260
S'instance'
p261
(dp262
g10
I01
sg11
F8.152386328166866
sg12
F1.6664028645338764
sg13
I18
sg14
g26
sg16
I01
sg17
(igamelib.math2d
Vector2
p263
(dp264
S'y'
F531
sS'x'
F287
sbsssbba(igamelib.misc
Beauty
p265
(igamelib.data
SaveData
p266
(dp267
g6
(dp268
S'instance'
p269
(dp270
g10
I01
sg11
F45.655738296090277
sg12
F1.4657963038373569
sg13
I18
sg14
g26
sg16
I01
sg17
(igamelib.math2d
Vector2
p271
(dp272
S'y'
F242
sS'x'
F122
sbsssbba(igamelib.buildings
Orphanage
p273
(igamelib.data
SaveData
p274
(dp275
g6
(dp276
S'instance'
p277
(dp278
g10
I01
sg68
(igamelib.pathfinding
Path
p279
(igamelib.data
SaveData
p280
(dp281
g6
(dp282
S'instance'
p283
(dp284
g10
I01
sg75
(igamelib.pathfinding
Waypoint
p285
(igamelib.data
SaveData
p286
(dp287
g6
(dp288
S'instance'
p289
(dp290
g82
Nsg83
(igamelib.pathfinding
Waypoint
p291
(igamelib.data
SaveData
p292
(dp293
g6
(dp294
S'instance'
p295
(dp296
g82
g285
sg83
(igamelib.pathfinding
Waypoint
p297
(igamelib.data
SaveData
p298
(dp299
g6
(dp300
S'instance'
p301
(dp302
g82
g291
sg83
(igamelib.pathfinding
Waypoint
p303
(igamelib.data
SaveData
p304
(dp305
g6
(dp306
S'instance'
p307
(dp308
g82
g297
sg83
(igamelib.pathfinding
Waypoint
p309
(igamelib.data
SaveData
p310
(dp311
g6
(dp312
S'instance'
p313
(dp314
g82
g303
sg83
Nsg17
(igamelib.math2d
Vector2
p315
(dp316
S'y'
F569.52169076751943
sS'x'
F734.68298109010016
sbsssbbsg17
(igamelib.math2d
Vector2
p317
(dp318
S'y'
F224.2491657397108
sS'x'
F737.53058954393771
sbsssbbsg17
(igamelib.math2d
Vector2
p319
(dp320
S'y'
F224.2491657397108
sS'x'
F867.09677419354841
sbsssbbsg17
(igamelib.math2d
Vector2
p321
(dp322
S'y'
F210.01112347052282
sS'x'
F908.38709677419354
sbsssbbsg17
(igamelib.math2d
Vector2
p323
(dp324
S'y'
F235.63959955506118
sS'x'
F913.37041156840939
sbsssbbsg16
I00
sssbbsg17
(igamelib.math2d
Vector2
p325
(dp326
S'y'
F224
sS'x'
F928
sbsg11
F-1260
sg16
I01
sssbba(igamelib.misc
Beauty
p327
(igamelib.data
SaveData
p328
(dp329
g6
(dp330
S'instance'
p331
(dp332
g10
I01
sg11
F227.16158278229932
sg12
F0.68117895991710775
sg13
I18
sg14
g26
sg16
I01
sg17
(igamelib.math2d
Vector2
p333
(dp334
S'y'
F553
sS'x'
F70
sbsssbba(igamelib.misc
Markable
p335
(igamelib.data
SaveData
p336
(dp337
g6
(dp338
S'instance'
p339
(dp340
g10
I01
sg11
F-1260
sg12
F1
sg13
I10
sg14
g15
sg16
I01
sg17
(igamelib.math2d
Vector2
p341
(dp342
S'y'
F352
sS'x'
F480
sbsssbba(igamelib.misc
Beauty
p343
(igamelib.data
SaveData
p344
(dp345
g6
(dp346
S'instance'
p347
(dp348
g10
I01
sg11
F141.06376591831486
sg12
F1.3131017588379859
sg13
I18
sg14
g26
sg16
I01
sg17
(igamelib.math2d
Vector2
p349
(dp350
S'y'
F434
sS'x'
F950
sbsssbba(igamelib.buildings
HQ
p351
(igamelib.data
SaveData
p352
(dp353
g6
(dp354
S'instance'
p355
(dp356
g10
I01
sg17
(igamelib.math2d
Vector2
p357
(dp358
S'y'
F608
sS'x'
F736
sbsg11
F-1440
sg16
I01
sssbba(igamelib.misc
Beauty
p359
(igamelib.data
SaveData
p360
(dp361
g6
(dp362
S'instance'
p363
(dp364
g10
I01
sg11
F319.08003506587107
sg12
F0.50843669742339936
sg13
I18
sg14
S'deco_tree.png'
p365
sg16
I01
sg17
(igamelib.math2d
Vector2
p366
(dp367
S'y'
F47
sS'x'
F1047
sbsssbba(igamelib.misc
Markable
p368
(igamelib.data
SaveData
p369
(dp370
g6
(dp371
S'instance'
p372
(dp373
g10
I01
sg11
F-1350
sg12
F1
sg13
I10
sg14
g15
sg16
I01
sg17
(igamelib.math2d
Vector2
p374
(dp375
S'y'
F224
sS'x'
F672
sbsssbba(igamelib.towers
Bunker
p376
(igamelib.data
SaveData
p377
(dp378
g6
(dp379
S'instance'
p380
(dp381
g10
I01
sg17
(igamelib.math2d
Vector2
p382
(dp383
S'y'
F480
sS'x'
F672
sbsg11
F-1620
sg16
I01
sssbba(igamelib.misc
Markable
p384
(igamelib.data
SaveData
p385
(dp386
g6
(dp387
S'instance'
p388
(dp389
g10
I01
sg11
F-1260
sg12
F1
sg13
I10
sg14
g15
sg16
I01
sg17
(igamelib.math2d
Vector2
p390
(dp391
S'y'
F288
sS'x'
F736
sbsssbba(igamelib.misc
Markable
p392
(igamelib.data
SaveData
p393
(dp394
g6
(dp395
S'instance'
p396
(dp397
g10
I01
sg11
F-1350
sg12
F1
sg13
I10
sg14
g15
sg16
I01
sg17
(igamelib.math2d
Vector2
p398
(dp399
S'y'
F224
sS'x'
F800
sbsssbba(igamelib.misc
Beauty
p400
(igamelib.data
SaveData
p401
(dp402
g6
(dp403
S'instance'
p404
(dp405
g10
I01
sg11
F122.18198031499173
sg12
F1.9404094513538059
sg13
I18
sg14
g26
sg16
I01
sg17
(igamelib.math2d
Vector2
p406
(dp407
S'y'
F334
sS'x'
F101
sbsssbba(igamelib.misc
Markable
p408
(igamelib.data
SaveData
p409
(dp410
g6
(dp411
S'instance'
p412
(dp413
g10
I01
sg11
F-1440
sg12
F1
sg13
I10
sg14
g15
sg16
I01
sg17
(igamelib.math2d
Vector2
p414
(dp415
S'y'
F544
sS'x'
F736
sbsssbba(igamelib.misc
Beauty
p416
(igamelib.data
SaveData
p417
(dp418
g6
(dp419
S'instance'
p420
(dp421
g10
I01
sg11
F302.96847728464428
sg12
F1.7519301604969331
sg13
I18
sg14
g26
sg16
I01
sg17
(igamelib.math2d
Vector2
p422
(dp423
S'y'
F361
sS'x'
F1009
sbsssbba(igamelib.misc
Beauty
p424
(igamelib.data
SaveData
p425
(dp426
g6
(dp427
S'instance'
p428
(dp429
g10
I01
sg11
F200.92605191009378
sg12
F0.5158014250602847
sg13
I18
sg14
g26
sg16
I01
sg17
(igamelib.math2d
Vector2
p430
(dp431
S'y'
F463
sS'x'
F607
sbsssbba(igamelib.towers
Bunker
p432
(igamelib.data
SaveData
p433
(dp434
g6
(dp435
S'instance'
p436
(dp437
g10
I01
sg17
(igamelib.math2d
Vector2
p438
(dp439
S'y'
F288
sS'x'
F608
sbsg11
F-1350
sg16
I01
sssbba(igamelib.misc
Beauty
p440
(igamelib.data
SaveData
p441
(dp442
g6
(dp443
S'instance'
p444
(dp445
g10
I01
sg11
F99.569662339682239
sg12
F1.503135323847961
sg13
I18
sg14
g26
sg16
I01
sg17
(igamelib.math2d
Vector2
p446
(dp447
S'y'
F40
sS'x'
F448
sbsssbba(igamelib.misc
Beauty
p448
(igamelib.data
SaveData
p449
(dp450
g6
(dp451
S'instance'
p452
(dp453
g10
I01
sg11
F267.56300414624127
sg12
F1.5309870047528455
sg13
I18
sg14
g26
sg16
I01
sg17
(igamelib.math2d
Vector2
p454
(dp455
S'y'
F45
sS'x'
F741
sbsssbba(igamelib.misc
Beauty
p456
(igamelib.data
SaveData
p457
(dp458
g6
(dp459
S'instance'
p460
(dp461
g10
I01
sg11
F129.95478384056884
sg12
F0.84177958194848679
sg13
I18
sg14
g365
sg16
I01
sg17
(igamelib.math2d
Vector2
p462
(dp463
S'y'
F23
sS'x'
F1238
sbsssbba(igamelib.misc
Beauty
p464
(igamelib.data
SaveData
p465
(dp466
g6
(dp467
S'instance'
p468
(dp469
g10
I01
sg11
F356.62874087699879
sg12
F0.99272181524115743
sg13
I18
sg14
g26
sg16
I01
sg17
(igamelib.math2d
Vector2
p470
(dp471
S'y'
F667
sS'x'
F849
sbsssbba(igamelib.misc
Beauty
p472
(igamelib.data
SaveData
p473
(dp474
g6
(dp475
S'instance'
p476
(dp477
g10
I01
sg11
F298.31411204938252
sg12
F1.1938556261118263
sg13
I18
sg14
g365
sg16
I01
sg17
(igamelib.math2d
Vector2
p478
(dp479
S'y'
F508
sS'x'
F1271
sbsssbba(igamelib.misc
Markable
p480
(igamelib.data
SaveData
p481
(dp482
g6
(dp483
S'instance'
p484
(dp485
g10
I01
sg11
F-1710
sg12
F1
sg13
I10
sg14
g15
sg16
I01
sg17
(igamelib.math2d
Vector2
p486
(dp487
S'y'
F288
sS'x'
F416
sbsssbba(igamelib.misc
Beauty
p488
(igamelib.data
SaveData
p489
(dp490
g6
(dp491
S'instance'
p492
(dp493
g10
I01
sg11
F303.99239651312564
sg12
F1.3930476092256621
sg13
I18
sg14
g26
sg16
I01
sg17
(igamelib.math2d
Vector2
p494
(dp495
S'y'
F676
sS'x'
F1068
sbsssbba(igamelib.misc
Beauty
p496
(igamelib.data
SaveData
p497
(dp498
g6
(dp499
S'instance'
p500
(dp501
g10
I01
sg11
F267.22468385273703
sg12
F1.6157012681534051
sg13
I18
sg14
g26
sg16
I01
sg17
(igamelib.math2d
Vector2
p502
(dp503
S'y'
F155
sS'x'
F168
sbsssbba(igamelib.misc
Beauty
p504
(igamelib.data
SaveData
p505
(dp506
g6
(dp507
S'instance'
p508
(dp509
g10
I01
sg11
F238.9422237324292
sg12
F0.86743426904962728
sg13
I18
sg14
g26
sg16
I01
sg17
(igamelib.math2d
Vector2
p510
(dp511
S'y'
F158
sS'x'
F35
sbsssbba(igamelib.misc
Beauty
p512
(igamelib.data
SaveData
p513
(dp514
g6
(dp515
S'instance'
p516
(dp517
g10
I01
sg11
F142.6570675018051
sg12
F0.50926098527651675
sg13
I18
sg14
g26
sg16
I01
sg17
(igamelib.math2d
Vector2
p518
(dp519
S'y'
F64
sS'x'
F165
sbsssbba(igamelib.misc
Beauty
p520
(igamelib.data
SaveData
p521
(dp522
g6
(dp523
S'instance'
p524
(dp525
g10
I01
sg11
F306.981772310331
sg12
F0.60021551681736751
sg13
I18
sg14
g26
sg16
I01
sg17
(igamelib.math2d
Vector2
p526
(dp527
S'y'
F356
sS'x'
F547
sbsssbba(igamelib.misc
Beauty
p528
(igamelib.data
SaveData
p529
(dp530
g6
(dp531
S'instance'
p532
(dp533
g10
I01
sg11
F327.70073506103745
sg12
F1.5283467815368696
sg13
I18
sg14
g26
sg16
I01
sg17
(igamelib.math2d
Vector2
p534
(dp535
S'y'
F153
sS'x'
F93
sbsssbba(igamelib.misc
Beauty
p536
(igamelib.data
SaveData
p537
(dp538
g6
(dp539
S'instance'
p540
(dp541
g10
I01
sg11
F121.95521187487344
sg12
F0.55789611289749574
sg13
I18
sg14
g26
sg16
I01
sg17
(igamelib.math2d
Vector2
p542
(dp543
S'y'
F537
sS'x'
F917
sbsssbba(igamelib.misc
Beauty
p544
(igamelib.data
SaveData
p545
(dp546
g6
(dp547
S'instance'
p548
(dp549
g10
I01
sg11
F214.71781476794737
sg12
F1.2009333189092113
sg13
I18
sg14
g26
sg16
I01
sg17
(igamelib.math2d
Vector2
p550
(dp551
S'y'
F160
sS'x'
F360
sbsssbba(igamelib.misc
Beauty
p552
(igamelib.data
SaveData
p553
(dp554
g6
(dp555
S'instance'
p556
(dp557
g10
I01
sg11
F253.65714471488613
sg12
F1.1510233633743037
sg13
I18
sg14
g26
sg16
I01
sg17
(igamelib.math2d
Vector2
p558
(dp559
S'y'
F441
sS'x'
F61
sbsssbba(igamelib.buildings
Beergarden
p560
(igamelib.data
SaveData
p561
(dp562
g6
(dp563
S'instance'
p564
(dp565
g10
I01
sg68
(igamelib.pathfinding
Path
p566
(igamelib.data
SaveData
p567
(dp568
g6
(dp569
S'instance'
p570
(dp571
g10
I01
sg75
(igamelib.pathfinding
Waypoint
p572
(igamelib.data
SaveData
p573
(dp574
g6
(dp575
S'instance'
p576
(dp577
g82
Nsg83
(igamelib.pathfinding
Waypoint
p578
(igamelib.data
SaveData
p579
(dp580
g6
(dp581
S'instance'
p582
(dp583
g82
g572
sg83
(igamelib.pathfinding
Waypoint
p584
(igamelib.data
SaveData
p585
(dp586
g6
(dp587
S'instance'
p588
(dp589
g82
g578
sg83
(igamelib.pathfinding
Waypoint
p590
(igamelib.data
SaveData
p591
(dp592
g6
(dp593
S'instance'
p594
(dp595
g82
g584
sg83
Nsg17
(igamelib.math2d
Vector2
p596
(dp597
S'y'
F568.80978865406007
sS'x'
F736.81868743047835
sbsssbbsg17
(igamelib.math2d
Vector2
p598
(dp599
S'y'
F223.53726362625139
sS'x'
F737.53058954393771
sbsssbbsg17
(igamelib.math2d
Vector2
p600
(dp601
S'y'
F223.53726362625139
sS'x'
F480.53392658509455
sbsssbbsg17
(igamelib.math2d
Vector2
p602
(dp603
S'y'
F499.04338153503898
sS'x'
F481.24582869855396
sbsssbbsg16
I00
sssbbsg17
(igamelib.math2d
Vector2
p604
(dp605
S'y'
F544
sS'x'
F480
sbsg11
F-1350
sg16
I01
sssbba(igamelib.misc
Beauty
p606
(igamelib.data
SaveData
p607
(dp608
g6
(dp609
S'instance'
p610
(dp611
g10
I01
sg11
F148.21375666270259
sg12
F0.51607639744883038
sg13
I18
sg14
g26
sg16
I01
sg17
(igamelib.math2d
Vector2
p612
(dp613
S'y'
F32
sS'x'
F248
sbsssbba(igamelib.misc
Beauty
p614
(igamelib.data
SaveData
p615
(dp616
g6
(dp617
S'instance'
p618
(dp619
g10
I01
sg11
F184.88066114223511
sg12
F0.99048030442683688
sg13
I18
sg14
g365
sg16
I01
sg17
(igamelib.math2d
Vector2
p620
(dp621
S'y'
F180
sS'x'
F1278
sbsssbba(igamelib.towers
Tank
p622
(igamelib.data
SaveData
p623
(dp624
g6
(dp625
S'instance'
p626
(dp627
g10
I01
sg17
(igamelib.math2d
Vector2
p628
(dp629
S'y'
F416
sS'x'
F544
sbsg11
F-1170
sg16
I01
sssbba(igamelib.misc
Beauty
p630
(igamelib.data
SaveData
p631
(dp632
g6
(dp633
S'instance'
p634
(dp635
g10
I01
sg11
F212.94127196342944
sg12
F0.791788370112398
sg13
I18
sg14
g26
sg16
I01
sg17
(igamelib.math2d
Vector2
p636
(dp637
S'y'
F364
sS'x'
F579
sbsssbba(igamelib.misc
Markable
p638
(igamelib.data
SaveData
p639
(dp640
g6
(dp641
S'instance'
p642
(dp643
g10
I01
sg11
F-1260
sg12
F1
sg13
I10
sg14
g15
sg16
I01
sg17
(igamelib.math2d
Vector2
p644
(dp645
S'y'
F416
sS'x'
F736
sbsssbba(igamelib.towers
Tank
p646
(igamelib.data
SaveData
p647
(dp648
g6
(dp649
S'instance'
p650
(dp651
g10
I01
sg17
(igamelib.math2d
Vector2
p652
(dp653
S'y'
F416
sS'x'
F416
sbsg11
F-1350
sg16
I01
sssbba(igamelib.misc
Beauty
p654
(igamelib.data
SaveData
p655
(dp656
g6
(dp657
S'instance'
p658
(dp659
g10
I01
sg11
F139.47200367414658
sg12
F1.6222056689105426
sg13
I18
sg14
g26
sg16
I01
sg17
(igamelib.math2d
Vector2
p660
(dp661
S'y'
F14
sS'x'
F134
sbsssbba(igamelib.misc
Beauty
p662
(igamelib.data
SaveData
p663
(dp664
g6
(dp665
S'instance'
p666
(dp667
g10
I01
sg11
F138.7463561309622
sg12
F0.53704361049272031
sg13
I18
sg14
g26
sg16
I01
sg17
(igamelib.math2d
Vector2
p668
(dp669
S'y'
F452
sS'x'
F902
sbsssbba(igamelib.misc
Markable
p670
(igamelib.data
SaveData
p671
(dp672
g6
(dp673
S'instance'
p674
(dp675
g10
I01
sg11
F-1260
sg12
F1
sg13
I10
sg14
g158
sg16
I01
sg17
(igamelib.math2d
Vector2
p676
(dp677
S'y'
F224
sS'x'
F736
sbsssbba(igamelib.misc
Markable
p678
(igamelib.data
SaveData
p679
(dp680
g6
(dp681
S'instance'
p682
(dp683
g10
I01
sg11
F-1260
sg12
F1
sg13
I10
sg14
g15
sg16
I01
sg17
(igamelib.math2d
Vector2
p684
(dp685
S'y'
F416
sS'x'
F480
sbsssbba(igamelib.misc
Markable
p686
(igamelib.data
SaveData
p687
(dp688
g6
(dp689
S'instance'
p690
(dp691
g10
I01
sg11
F-1350
sg12
F1
sg13
I10
sg14
g15
sg16
I01
sg17
(igamelib.math2d
Vector2
p692
(dp693
S'y'
F224
sS'x'
F608
sbsssbbatRp694
.