c__builtin__
set
p1
((lp2
(igamelib.misc
Beauty
p3
(igamelib.data
SaveData
p4
(dp5
S'classes'
p6
(dp7
S'instance'
p8
(dp9
S'__visible'
p10
I01
sS'_rotation'
p11
F180.70614401179108
sS'_Scale'
p12
F0.51887460239878314
sS'_z_index'
p13
I18
sS'_TextureName'
p14
S'deco_tree.png'
p15
sS'__renderCallback'
p16
I01
sS'_position'
p17
(igamelib.math2d
Vector2
p18
(dp19
S'y'
F130
sS'x'
F1024
sbsssbba(igamelib.misc
Beauty
p20
(igamelib.data
SaveData
p21
(dp22
g6
(dp23
S'instance'
p24
(dp25
g10
I01
sg11
F331.26066486321633
sg12
F1.4352502648595857
sg13
I18
sg14
g15
sg16
I01
sg17
(igamelib.math2d
Vector2
p26
(dp27
S'y'
F89
sS'x'
F1029
sbsssbba(igamelib.misc
Markable
p28
(igamelib.data
SaveData
p29
(dp30
g6
(dp31
S'instance'
p32
(dp33
g10
I01
sg11
F-1800
sg12
F1
sg13
I10
sg14
S'path_straight.png'
p34
sg16
I01
sg17
(igamelib.math2d
Vector2
p35
(dp36
S'y'
F352
sS'x'
F416
sbsssbba(igamelib.misc
Beauty
p37
(igamelib.data
SaveData
p38
(dp39
g6
(dp40
S'instance'
p41
(dp42
g10
I01
sg11
F184.88066114223511
sg12
F0.99048030442683688
sg13
I18
sg14
S'deco_tree.png'
p43
sg16
I01
sg17
(igamelib.math2d
Vector2
p44
(dp45
S'y'
F180
sS'x'
F1278
sbsssbba(igamelib.misc
Beauty
p46
(igamelib.data
SaveData
p47
(dp48
g6
(dp49
S'instance'
p50
(dp51
g10
I01
sg11
F168.24127130226995
sg12
F1.6029041699935469
sg13
I18
sg14
g15
sg16
I01
sg17
(igamelib.math2d
Vector2
p52
(dp53
S'y'
F191
sS'x'
F1035
sbsssbba(igamelib.misc
Beauty
p54
(igamelib.data
SaveData
p55
(dp56
g6
(dp57
S'instance'
p58
(dp59
g10
I01
sg11
F116.71612524718243
sg12
F1.800097828241167
sg13
I18
sg14
S'deco_tree.png'
p60
sg16
I01
sg17
(igamelib.math2d
Vector2
p61
(dp62
S'y'
F41
sS'x'
F110
sbsssbba(igamelib.misc
Beauty
p63
(igamelib.data
SaveData
p64
(dp65
g6
(dp66
S'instance'
p67
(dp68
g10
I01
sg11
F296.18828352095727
sg12
F1.4140334852216001
sg13
I18
sg14
g15
sg16
I01
sg17
(igamelib.math2d
Vector2
p69
(dp70
S'y'
F413
sS'x'
F801
sbsssbba(igamelib.misc
Beauty
p71
(igamelib.data
SaveData
p72
(dp73
g6
(dp74
S'instance'
p75
(dp76
g10
I01
sg11
F144.81066164522102
sg12
F0.54674638827765021
sg13
I18
sg14
g43
sg16
I01
sg17
(igamelib.math2d
Vector2
p77
(dp78
S'y'
F666
sS'x'
F2
sbsssbba(igamelib.misc
Beauty
p79
(igamelib.data
SaveData
p80
(dp81
g6
(dp82
S'instance'
p83
(dp84
g10
I01
sg11
F281.06458593198334
sg12
F0.70629568208030502
sg13
I18
sg14
S'deco_tree.png'
p85
sg16
I01
sg17
(igamelib.math2d
Vector2
p86
(dp87
S'y'
F653
sS'x'
F635
sbsssbba(igamelib.misc
Beauty
p88
(igamelib.data
SaveData
p89
(dp90
g6
(dp91
S'instance'
p92
(dp93
g10
I01
sg11
F273.74081288858855
sg12
F1.7245689220821283
sg13
I18
sg14
g15
sg16
I01
sg17
(igamelib.math2d
Vector2
p94
(dp95
S'y'
F324
sS'x'
F642
sbsssbba(igamelib.misc
Markable
p96
(igamelib.data
SaveData
p97
(dp98
g6
(dp99
S'instance'
p100
(dp101
g10
I01
sg11
F-90
sg12
F1
sg13
I10
sg14
S'path_straight.png'
p102
sg16
I01
sg17
(igamelib.math2d
Vector2
p103
(dp104
S'y'
F352
sS'x'
F928
sbsssbba(igamelib.misc
Beauty
p105
(igamelib.data
SaveData
p106
(dp107
g6
(dp108
S'instance'
p109
(dp110
g10
I01
sg11
F162.49217060601157
sg12
F1.7557083024591436
sg13
I18
sg14
g15
sg16
I01
sg17
(igamelib.math2d
Vector2
p111
(dp112
S'y'
F575
sS'x'
F50
sbsssbba(igamelib.misc
Beauty
p113
(igamelib.data
SaveData
p114
(dp115
g6
(dp116
S'instance'
p117
(dp118
g10
I01
sg11
F61.289383400174245
sg12
F1.4745975394594044
sg13
I18
sg14
g85
sg16
I01
sg17
(igamelib.math2d
Vector2
p119
(dp120
S'y'
F689
sS'x'
F660
sbsssbba(igamelib.misc
Beauty
p121
(igamelib.data
SaveData
p122
(dp123
g6
(dp124
S'instance'
p125
(dp126
g10
I01
sg11
F237.54596695410083
sg12
F0.50025397347461653
sg13
I18
sg14
g43
sg16
I01
sg17
(igamelib.math2d
Vector2
p127
(dp128
S'y'
F113
sS'x'
F47
sbsssbba(igamelib.buildings
FastFood
p129
(igamelib.data
SaveData
p130
(dp131
g6
(dp132
S'instance'
p133
(dp134
g10
I01
sS'path'
p135
(igamelib.pathfinding
Path
p136
(igamelib.data
SaveData
p137
(dp138
g6
(dp139
S'instance'
p140
(dp141
g10
I01
sS'_Start'
p142
(igamelib.pathfinding
Waypoint
p143
(igamelib.data
SaveData
p144
(dp145
g6
(dp146
S'instance'
p147
(dp148
S'_previous'
p149
NsS'_next'
p150
(igamelib.pathfinding
Waypoint
p151
(igamelib.data
SaveData
p152
(dp153
g6
(dp154
S'instance'
p155
(dp156
g149
g143
sg150
(igamelib.pathfinding
Waypoint
p157
(igamelib.data
SaveData
p158
(dp159
g6
(dp160
S'instance'
p161
(dp162
g149
g151
sg150
(igamelib.pathfinding
Waypoint
p163
(igamelib.data
SaveData
p164
(dp165
g6
(dp166
S'instance'
p167
(dp168
g149
g157
sg150
(igamelib.pathfinding
Waypoint
p169
(igamelib.data
SaveData
p170
(dp171
g6
(dp172
S'instance'
p173
(dp174
g149
g163
sg150
(igamelib.pathfinding
Waypoint
p175
(igamelib.data
SaveData
p176
(dp177
g6
(dp178
S'instance'
p179
(dp180
g149
g169
sg150
(igamelib.pathfinding
Waypoint
p181
(igamelib.data
SaveData
p182
(dp183
g6
(dp184
S'instance'
p185
(dp186
g149
g175
sg150
(igamelib.pathfinding
Waypoint
p187
(igamelib.data
SaveData
p188
(dp189
g6
(dp190
S'instance'
p191
(dp192
g149
g181
sg150
Nsg17
(igamelib.math2d
Vector2
p193
(dp194
S'y'
F544
sS'x'
F952
sbsssbbsg17
(igamelib.math2d
Vector2
p195
(dp196
S'y'
F547
sS'x'
F801
sbsssbbsg17
(igamelib.math2d
Vector2
p197
(dp198
S'y'
F479
sS'x'
F801
sbsssbbsg17
(igamelib.math2d
Vector2
p199
(dp200
S'y'
F479
sS'x'
F418
sbsssbbsg17
(igamelib.math2d
Vector2
p201
(dp202
S'y'
F226
sS'x'
F417
sbsssbbsg17
(igamelib.math2d
Vector2
p203
(dp204
S'y'
F225
sS'x'
F867
sbsssbbsg17
(igamelib.math2d
Vector2
p205
(dp206
S'y'
F345
sS'x'
F866
sbsssbbsg17
(igamelib.math2d
Vector2
p207
(dp208
S'y'
F347
sS'x'
F940
sbsssbbsg16
I00
sssbbsg17
(igamelib.math2d
Vector2
p209
(dp210
S'y'
F352
sS'x'
F992
sbsg11
F90
sg16
I01
sssbba(igamelib.misc
Beauty
p211
(igamelib.data
SaveData
p212
(dp213
g6
(dp214
S'instance'
p215
(dp216
g10
I01
sg11
F102.96137932304028
sg12
F0.90941830854281291
sg13
I18
sg14
g85
sg16
I01
sg17
(igamelib.math2d
Vector2
p217
(dp218
S'y'
F703
sS'x'
F140
sbsssbba(igamelib.misc
Beauty
p219
(igamelib.data
SaveData
p220
(dp221
g6
(dp222
S'instance'
p223
(dp224
g10
I01
sg11
F77.209431351135066
sg12
F1.587888068123217
sg13
I18
sg14
g15
sg16
I01
sg17
(igamelib.math2d
Vector2
p225
(dp226
S'y'
F314
sS'x'
F214
sbsssbba(igamelib.misc
Markable
p227
(igamelib.data
SaveData
p228
(dp229
g6
(dp230
S'instance'
p231
(dp232
g10
I01
sg11
F-1890
sg12
F1
sg13
I10
sg14
g34
sg16
I01
sg17
(igamelib.math2d
Vector2
p233
(dp234
S'y'
F224
sS'x'
F800
sbsssbba(igamelib.misc
Markable
p235
(igamelib.data
SaveData
p236
(dp237
g6
(dp238
S'instance'
p239
(dp240
g10
I01
sg11
F-180
sg12
F1
sg13
I10
sg14
S'path_corner.png'
p241
sg16
I01
sg17
(igamelib.math2d
Vector2
p242
(dp243
S'y'
F224
sS'x'
F864
sbsssbba(igamelib.misc
Beauty
p244
(igamelib.data
SaveData
p245
(dp246
g6
(dp247
S'instance'
p248
(dp249
g10
I01
sg11
F355.48176120787184
sg12
F0.54768146974145415
sg13
I18
sg14
g85
sg16
I01
sg17
(igamelib.math2d
Vector2
p250
(dp251
S'y'
F397
sS'x'
F137
sbsssbba(igamelib.misc
Markable
p252
(igamelib.data
SaveData
p253
(dp254
g6
(dp255
S'instance'
p256
(dp257
g10
I01
sg11
F-2070
sg12
F1
sg13
I10
sg14
g34
sg16
I01
sg17
(igamelib.math2d
Vector2
p258
(dp259
S'y'
F96
sS'x'
F608
sbsssbba(igamelib.misc
Markable
p260
(igamelib.data
SaveData
p261
(dp262
g6
(dp263
S'instance'
p264
(dp265
g10
I01
sg11
F-990
sg12
F1
sg13
I10
sg14
g34
sg16
I01
sg17
(igamelib.math2d
Vector2
p266
(dp267
S'y'
F544
sS'x'
F864
sbsssbba(igamelib.misc
Beauty
p268
(igamelib.data
SaveData
p269
(dp270
g6
(dp271
S'instance'
p272
(dp273
g10
I01
sg11
F336.45319941092345
sg12
F1.0603521044240551
sg13
I18
sg14
g15
sg16
I01
sg17
(igamelib.math2d
Vector2
p274
(dp275
S'y'
F511
sS'x'
F22
sbsssbba(igamelib.misc
Beauty
p276
(igamelib.data
SaveData
p277
(dp278
g6
(dp279
S'instance'
p280
(dp281
g10
I01
sg11
F130.20437345874564
sg12
F1.0993106857079946
sg13
I18
sg14
g15
sg16
I01
sg17
(igamelib.math2d
Vector2
p282
(dp283
S'y'
F380
sS'x'
F624
sbsssbba(igamelib.misc
Markable
p284
(igamelib.data
SaveData
p285
(dp286
g6
(dp287
S'instance'
p288
(dp289
g10
I01
sg11
F-1800
sg12
F1
sg13
I10
sg14
g34
sg16
I01
sg17
(igamelib.math2d
Vector2
p290
(dp291
S'y'
F288
sS'x'
F416
sbsssbba(igamelib.misc
Markable
p292
(igamelib.data
SaveData
p293
(dp294
g6
(dp295
S'instance'
p296
(dp297
g10
I01
sg11
F-2070
sg12
F1
sg13
I10
sg14
g34
sg16
I01
sg17
(igamelib.math2d
Vector2
p298
(dp299
S'y'
F96
sS'x'
F672
sbsssbba(igamelib.misc
Beauty
p300
(igamelib.data
SaveData
p301
(dp302
g6
(dp303
S'instance'
p304
(dp305
g10
I01
sg11
F158.85891218730859
sg12
F1.2584359554773266
sg13
I18
sg14
g85
sg16
I01
sg17
(igamelib.math2d
Vector2
p306
(dp307
S'y'
F707
sS'x'
F810
sbsssbba(igamelib.misc
Beauty
p308
(igamelib.data
SaveData
p309
(dp310
g6
(dp311
S'instance'
p312
(dp313
g10
I01
sg11
F156.52418639793387
sg12
F1.3763360321279683
sg13
I18
sg14
g60
sg16
I01
sg17
(igamelib.math2d
Vector2
p314
(dp315
S'y'
F26
sS'x'
F235
sbsssbba(igamelib.misc
Beauty
p316
(igamelib.data
SaveData
p317
(dp318
g6
(dp319
S'instance'
p320
(dp321
g10
I01
sg11
F319.08003506587107
sg12
F0.50843669742339936
sg13
I18
sg14
g43
sg16
I01
sg17
(igamelib.math2d
Vector2
p322
(dp323
S'y'
F47
sS'x'
F1047
sbsssbba(igamelib.towers
Artillery
p324
(igamelib.data
SaveData
p325
(dp326
g6
(dp327
S'instance'
p328
(dp329
g10
I01
sg17
(igamelib.math2d
Vector2
p330
(dp331
S'y'
F352
sS'x'
F544
sbsg11
F-1800
sg16
I01
sssbba(igamelib.misc
Beauty
p332
(igamelib.data
SaveData
p333
(dp334
g6
(dp335
S'instance'
p336
(dp337
g10
I01
sg11
F348.80407582649445
sg12
F0.65901396749625629
sg13
I18
sg14
g15
sg16
I01
sg17
(igamelib.math2d
Vector2
p338
(dp339
S'y'
F219
sS'x'
F346
sbsssbba(igamelib.misc
Beauty
p340
(igamelib.data
SaveData
p341
(dp342
g6
(dp343
S'instance'
p344
(dp345
g10
I01
sg11
F25.662166833275727
sg12
F0.54588742079284658
sg13
I18
sg14
g15
sg16
I01
sg17
(igamelib.math2d
Vector2
p346
(dp347
S'y'
F278
sS'x'
F790
sbsssbba(igamelib.misc
Markable
p348
(igamelib.data
SaveData
p349
(dp350
g6
(dp351
S'instance'
p352
(dp353
g10
I01
sg11
F-1890
sg12
F1
sg13
I10
sg14
g34
sg16
I01
sg17
(igamelib.math2d
Vector2
p354
(dp355
S'y'
F480
sS'x'
F480
sbsssbba(igamelib.misc
Beauty
p356
(igamelib.data
SaveData
p357
(dp358
g6
(dp359
S'instance'
p360
(dp361
g10
I01
sg11
F276.37781127714209
sg12
F1.5593033471965041
sg13
I18
sg14
g15
sg16
I01
sg17
(igamelib.math2d
Vector2
p362
(dp363
S'y'
F297
sS'x'
F276
sbsssbba(igamelib.misc
Beauty
p364
(igamelib.data
SaveData
p365
(dp366
g6
(dp367
S'instance'
p368
(dp369
g10
I01
sg11
F130.10062183244693
sg12
F1.6716796936196017
sg13
I18
sg14
g43
sg16
I01
sg17
(igamelib.math2d
Vector2
p370
(dp371
S'y'
F203
sS'x'
F41
sbsssbba(igamelib.misc
Markable
p372
(igamelib.data
SaveData
p373
(dp374
g6
(dp375
S'instance'
p376
(dp377
g10
I01
sg11
F-1260
sg12
F1
sg13
I10
sg14
g34
sg16
I01
sg17
(igamelib.math2d
Vector2
p378
(dp379
S'y'
F544
sS'x'
F736
sbsssbba(igamelib.misc
Beauty
p380
(igamelib.data
SaveData
p381
(dp382
g6
(dp383
S'instance'
p384
(dp385
g10
I01
sg11
F357.90238275741387
sg12
F0.45458589702833369
sg13
I18
sg14
g60
sg16
I01
sg17
(igamelib.math2d
Vector2
p386
(dp387
S'y'
F19
sS'x'
F318
sbsssbba(igamelib.misc
Beauty
p388
(igamelib.data
SaveData
p389
(dp390
g6
(dp391
S'instance'
p392
(dp393
g10
I01
sg11
F356.6375042575375
sg12
F0.69949078448051616
sg13
I18
sg14
g85
sg16
I01
sg17
(igamelib.math2d
Vector2
p394
(dp395
S'y'
F716
sS'x'
F494
sbsssbba(igamelib.misc
Markable
p396
(igamelib.data
SaveData
p397
(dp398
g6
(dp399
S'instance'
p400
(dp401
g10
I01
sg11
F-1890
sg12
F1
sg13
I10
sg14
g34
sg16
I01
sg17
(igamelib.math2d
Vector2
p402
(dp403
S'y'
F224
sS'x'
F544
sbsssbba(igamelib.misc
Markable
p404
(igamelib.data
SaveData
p405
(dp406
g6
(dp407
S'instance'
p408
(dp409
g10
I01
sg11
F180
sg12
F1
sg13
I10
sg14
g34
sg16
I01
sg17
(igamelib.math2d
Vector2
p410
(dp411
S'y'
F608
sS'x'
F736
sbsssbba(igamelib.misc
Markable
p412
(igamelib.data
SaveData
p413
(dp414
g6
(dp415
S'instance'
p416
(dp417
g10
I01
sg11
F-1440
sg12
F1
sg13
I10
sg14
g34
sg16
I01
sg17
(igamelib.math2d
Vector2
p418
(dp419
S'y'
F288
sS'x'
F736
sbsssbba(igamelib.misc
Markable
p420
(igamelib.data
SaveData
p421
(dp422
g6
(dp423
S'instance'
p424
(dp425
g10
I01
sg11
F-900
sg12
F1
sg13
I10
sg14
S'path_corner.png'
p426
sg16
I01
sg17
(igamelib.math2d
Vector2
p427
(dp428
S'y'
F480
sS'x'
F800
sbsssbba(igamelib.buildings
Orphanage
p429
(igamelib.data
SaveData
p430
(dp431
g6
(dp432
S'instance'
p433
(dp434
g10
I01
sg135
(igamelib.pathfinding
Path
p435
(igamelib.data
SaveData
p436
(dp437
g6
(dp438
S'instance'
p439
(dp440
g10
I01
sg142
(igamelib.pathfinding
Waypoint
p441
(igamelib.data
SaveData
p442
(dp443
g6
(dp444
S'instance'
p445
(dp446
g149
Nsg150
(igamelib.pathfinding
Waypoint
p447
(igamelib.data
SaveData
p448
(dp449
g6
(dp450
S'instance'
p451
(dp452
g149
g441
sg150
(igamelib.pathfinding
Waypoint
p453
(igamelib.data
SaveData
p454
(dp455
g6
(dp456
S'instance'
p457
(dp458
g149
g447
sg150
(igamelib.pathfinding
Waypoint
p459
(igamelib.data
SaveData
p460
(dp461
g6
(dp462
S'instance'
p463
(dp464
g149
g453
sg150
(igamelib.pathfinding
Waypoint
p465
(igamelib.data
SaveData
p466
(dp467
g6
(dp468
S'instance'
p469
(dp470
g149
g459
sg150
Nsg17
(igamelib.math2d
Vector2
p471
(dp472
S'y'
F643
sS'x'
F738
sbsssbbsg17
(igamelib.math2d
Vector2
p473
(dp474
S'y'
F94
sS'x'
F738
sbsssbbsg17
(igamelib.math2d
Vector2
p475
(dp476
S'y'
F94
sS'x'
F606
sbsssbbsg17
(igamelib.math2d
Vector2
p477
(dp478
S'y'
F118
sS'x'
F562
sbsssbbsg17
(igamelib.math2d
Vector2
p479
(dp480
S'y'
F83
sS'x'
F564
sbsssbbsg16
I00
sssbbsg17
(igamelib.math2d
Vector2
p481
(dp482
S'y'
F96
sS'x'
F544
sbsg11
F-2160
sg16
I01
sssbba(igamelib.towers
Tank
p483
(igamelib.data
SaveData
p484
(dp485
g6
(dp486
S'instance'
p487
(dp488
g10
I01
sg17
(igamelib.math2d
Vector2
p489
(dp490
S'y'
F480
sS'x'
F864
sbsg11
F-1125
sg16
I01
sssbba(igamelib.misc
Markable
p491
(igamelib.data
SaveData
p492
(dp493
g6
(dp494
S'instance'
p495
(dp496
g10
I01
sg11
F-90
sg12
F1
sg13
I10
sg14
g426
sg16
I01
sg17
(igamelib.math2d
Vector2
p497
(dp498
S'y'
F224
sS'x'
F416
sbsssbba(igamelib.misc
Markable
p499
(igamelib.data
SaveData
p500
(dp501
g6
(dp502
S'instance'
p503
(dp504
g10
I01
sg11
F-1890
sg12
F1
sg13
I10
sg14
g34
sg16
I01
sg17
(igamelib.math2d
Vector2
p505
(dp506
S'y'
F480
sS'x'
F544
sbsssbba(igamelib.misc
Beauty
p507
(igamelib.data
SaveData
p508
(dp509
g6
(dp510
S'instance'
p511
(dp512
g10
I01
sg11
F15.247500764720016
sg12
F1.0042647870666377
sg13
I18
sg14
g15
sg16
I01
sg17
(igamelib.math2d
Vector2
p513
(dp514
S'y'
F621
sS'x'
F47
sbsssbba(igamelib.misc
Markable
p515
(igamelib.data
SaveData
p516
(dp517
g6
(dp518
S'instance'
p519
(dp520
g10
I01
sg11
F0
sg12
F1
sg13
I10
sg14
g241
sg16
I01
sg17
(igamelib.math2d
Vector2
p521
(dp522
S'y'
F352
sS'x'
F864
sbsssbba(igamelib.misc
Beauty
p523
(igamelib.data
SaveData
p524
(dp525
g6
(dp526
S'instance'
p527
(dp528
g10
I01
sg11
F298.31411204938252
sg12
F1.1938556261118263
sg13
I18
sg14
g43
sg16
I01
sg17
(igamelib.math2d
Vector2
p529
(dp530
S'y'
F508
sS'x'
F1271
sbsssbba(igamelib.misc
Markable
p531
(igamelib.data
SaveData
p532
(dp533
g6
(dp534
S'instance'
p535
(dp536
g10
I01
sg11
F-990
sg12
F1
sg13
I10
sg14
g34
sg16
I01
sg17
(igamelib.math2d
Vector2
p537
(dp538
S'y'
F544
sS'x'
F928
sbsssbba(igamelib.misc
Beauty
p539
(igamelib.data
SaveData
p540
(dp541
g6
(dp542
S'instance'
p543
(dp544
g10
I01
sg11
F231.10997480815556
sg12
F0.87455394537078779
sg13
I18
sg14
g43
sg16
I01
sg17
(igamelib.math2d
Vector2
p545
(dp546
S'y'
F691
sS'x'
F34
sbsssbba(igamelib.misc
Markable
p547
(igamelib.data
SaveData
p548
(dp549
g6
(dp550
S'instance'
p551
(dp552
g10
I01
sg11
F-1980
sg12
F1
sg13
I10
sg14
g426
sg16
I01
sg17
(igamelib.math2d
Vector2
p553
(dp554
S'y'
F96
sS'x'
F736
sbsssbba(igamelib.misc
Beauty
p555
(igamelib.data
SaveData
p556
(dp557
g6
(dp558
S'instance'
p559
(dp560
g10
I01
sg11
F209.61248525377968
sg12
F1.3724682216421209
sg13
I18
sg14
g15
sg16
I01
sg17
(igamelib.math2d
Vector2
p561
(dp562
S'y'
F22
sS'x'
F995
sbsssbba(igamelib.misc
Beauty
p563
(igamelib.data
SaveData
p564
(dp565
g6
(dp566
S'instance'
p567
(dp568
g10
I01
sg11
F279.19871866872961
sg12
F1.1572160332160606
sg13
I18
sg14
g85
sg16
I01
sg17
(igamelib.math2d
Vector2
p569
(dp570
S'y'
F492
sS'x'
F105
sbsssbba(igamelib.misc
Beauty
p571
(igamelib.data
SaveData
p572
(dp573
g6
(dp574
S'instance'
p575
(dp576
g10
I01
sg11
F210.66133804341166
sg12
F1.3740709175675816
sg13
I18
sg14
g85
sg16
I01
sg17
(igamelib.math2d
Vector2
p577
(dp578
S'y'
F658
sS'x'
F724
sbsssbba(igamelib.misc
Beauty
p579
(igamelib.data
SaveData
p580
(dp581
g6
(dp582
S'instance'
p583
(dp584
g10
I01
sg11
F324.94498680964421
sg12
F1.7928157359299188
sg13
I18
sg14
g15
sg16
I01
sg17
(igamelib.math2d
Vector2
p585
(dp586
S'y'
F176
sS'x'
F129
sbsssbba(igamelib.misc
Beauty
p587
(igamelib.data
SaveData
p588
(dp589
g6
(dp590
S'instance'
p591
(dp592
g10
I01
sg11
F184.193749062991
sg12
F0.48062500021191512
sg13
I18
sg14
g15
sg16
I01
sg17
(igamelib.math2d
Vector2
p593
(dp594
S'y'
F158
sS'x'
F674
sbsssbba(igamelib.misc
Beauty
p595
(igamelib.data
SaveData
p596
(dp597
g6
(dp598
S'instance'
p599
(dp600
g10
I01
sg11
F336.08014651703178
sg12
F0.5895049819431788
sg13
I18
sg14
g85
sg16
I01
sg17
(igamelib.math2d
Vector2
p601
(dp602
S'y'
F578
sS'x'
F176
sbsssbba(igamelib.misc
Beauty
p603
(igamelib.data
SaveData
p604
(dp605
g6
(dp606
S'instance'
p607
(dp608
g10
I01
sg11
F233.80709606619183
sg12
F0.57484948056248009
sg13
I18
sg14
g15
sg16
I01
sg17
(igamelib.math2d
Vector2
p609
(dp610
S'y'
F408
sS'x'
F488
sbsssbba(igamelib.misc
Beauty
p611
(igamelib.data
SaveData
p612
(dp613
g6
(dp614
S'instance'
p615
(dp616
g10
I01
sg11
F19.236398984988089
sg12
F0.7297002673074362
sg13
I18
sg14
g43
sg16
I01
sg17
(igamelib.math2d
Vector2
p617
(dp618
S'y'
F46
sS'x'
F35
sbsssbba(igamelib.misc
Markable
p619
(igamelib.data
SaveData
p620
(dp621
g6
(dp622
S'instance'
p623
(dp624
g10
I01
sg11
F-1440
sg12
F1
sg13
I10
sg14
g34
sg16
I01
sg17
(igamelib.math2d
Vector2
p625
(dp626
S'y'
F352
sS'x'
F736
sbsssbba(igamelib.misc
Beauty
p627
(igamelib.data
SaveData
p628
(dp629
g6
(dp630
S'instance'
p631
(dp632
g10
I01
sg11
F51.215530709607691
sg12
F1.4761048589110308
sg13
I18
sg14
g85
sg16
I01
sg17
(igamelib.math2d
Vector2
p633
(dp634
S'y'
F671
sS'x'
F482
sbsssbba(igamelib.misc
Beauty
p635
(igamelib.data
SaveData
p636
(dp637
g6
(dp638
S'instance'
p639
(dp640
g10
I01
sg11
F337.75058537117468
sg12
F1.5471600001768933
sg13
I18
sg14
g60
sg16
I01
sg17
(igamelib.math2d
Vector2
p641
(dp642
S'y'
F282
sS'x'
F5
sbsssbba(igamelib.misc
Beauty
p643
(igamelib.data
SaveData
p644
(dp645
g6
(dp646
S'instance'
p647
(dp648
g10
I01
sg11
F308.86119066054891
sg12
F0.83978500537446898
sg13
I18
sg14
g85
sg16
I01
sg17
(igamelib.math2d
Vector2
p649
(dp650
S'y'
F701
sS'x'
F515
sbsssbba(igamelib.buildings
HQ
p651
(igamelib.data
SaveData
p652
(dp653
g6
(dp654
S'instance'
p655
(dp656
g10
I01
sg17
(igamelib.math2d
Vector2
p657
(dp658
S'y'
F544
sS'x'
F992
sbsg11
F-990
sg16
I01
sssbba(igamelib.misc
Beauty
p659
(igamelib.data
SaveData
p660
(dp661
g6
(dp662
S'instance'
p663
(dp664
g10
I01
sg11
F305.04130748487989
sg12
F0.9650313751301296
sg13
I18
sg14
g85
sg16
I01
sg17
(igamelib.math2d
Vector2
p665
(dp666
S'y'
F690
sS'x'
F425
sbsssbba(igamelib.misc
Beauty
p667
(igamelib.data
SaveData
p668
(dp669
g6
(dp670
S'instance'
p671
(dp672
g10
I01
sg11
F322.63412349157011
sg12
F1.1646060946642736
sg13
I18
sg14
g43
sg16
I01
sg17
(igamelib.math2d
Vector2
p673
(dp674
S'y'
F712
sS'x'
F892
sbsssbba(igamelib.misc
Markable
p675
(igamelib.data
SaveData
p676
(dp677
g6
(dp678
S'instance'
p679
(dp680
g10
I01
sg11
F-1800
sg12
F1
sg13
I10
sg14
g426
sg16
I01
sg17
(igamelib.math2d
Vector2
p681
(dp682
S'y'
F480
sS'x'
F416
sbsssbba(igamelib.misc
Beauty
p683
(igamelib.data
SaveData
p684
(dp685
g6
(dp686
S'instance'
p687
(dp688
g10
I01
sg11
F336.01445563826707
sg12
F0.71303522439088041
sg13
I18
sg14
g43
sg16
I01
sg17
(igamelib.math2d
Vector2
p689
(dp690
S'y'
F708
sS'x'
F62
sbsssbba(igamelib.misc
Markable
p691
(igamelib.data
SaveData
p692
(dp693
g6
(dp694
S'instance'
p695
(dp696
g10
I01
sg11
F-2070
sg12
F1
sg13
I10
sg14
g34
sg16
I01
sg17
(igamelib.math2d
Vector2
p697
(dp698
S'y'
F96
sS'x'
F544
sbsssbba(igamelib.misc
Markable
p699
(igamelib.data
SaveData
p700
(dp701
g6
(dp702
S'instance'
p703
(dp704
g10
I01
sg11
F-1260
sg12
F1
sg13
I10
sg14
g34
sg16
I01
sg17
(igamelib.math2d
Vector2
p705
(dp706
S'y'
F416
sS'x'
F736
sbsssbba(igamelib.misc
Markable
p707
(igamelib.data
SaveData
p708
(dp709
g6
(dp710
S'instance'
p711
(dp712
g10
I01
sg11
F-1710
sg12
F1
sg13
I10
sg14
S'path_X.png'
p713
sg16
I01
sg17
(igamelib.math2d
Vector2
p714
(dp715
S'y'
F224
sS'x'
F736
sbsssbba(igamelib.misc
Markable
p716
(igamelib.data
SaveData
p717
(dp718
g6
(dp719
S'instance'
p720
(dp721
g10
I01
sg11
F-990
sg12
F1
sg13
I10
sg14
g34
sg16
I01
sg17
(igamelib.math2d
Vector2
p722
(dp723
S'y'
F480
sS'x'
F672
sbsssbba(igamelib.misc
Markable
p724
(igamelib.data
SaveData
p725
(dp726
g6
(dp727
S'instance'
p728
(dp729
g10
I01
sg11
F-1890
sg12
F1
sg13
I10
sg14
g34
sg16
I01
sg17
(igamelib.math2d
Vector2
p730
(dp731
S'y'
F224
sS'x'
F480
sbsssbba(igamelib.misc
Beauty
p732
(igamelib.data
SaveData
p733
(dp734
g6
(dp735
S'instance'
p736
(dp737
g10
I01
sg11
F231.61621504384073
sg12
F1.5150246150272173
sg13
I18
sg14
g85
sg16
I01
sg17
(igamelib.math2d
Vector2
p738
(dp739
S'y'
F715
sS'x'
F575
sbsssbba(igamelib.misc
Beauty
p740
(igamelib.data
SaveData
p741
(dp742
g6
(dp743
S'instance'
p744
(dp745
g10
I01
sg11
F233.48552439964774
sg12
F0.96947808677875091
sg13
I18
sg14
g85
sg16
I01
sg17
(igamelib.math2d
Vector2
p746
(dp747
S'y'
F715
sS'x'
F450
sbsssbba(igamelib.misc
Markable
p748
(igamelib.data
SaveData
p749
(dp750
g6
(dp751
S'instance'
p752
(dp753
g10
I01
sg11
F-1890
sg12
F1
sg13
I10
sg14
g34
sg16
I01
sg17
(igamelib.math2d
Vector2
p754
(dp755
S'y'
F224
sS'x'
F672
sbsssbba(igamelib.misc
Beauty
p756
(igamelib.data
SaveData
p757
(dp758
g6
(dp759
S'instance'
p760
(dp761
g10
I01
sg11
F129.95478384056884
sg12
F0.84177958194848679
sg13
I18
sg14
g43
sg16
I01
sg17
(igamelib.math2d
Vector2
p762
(dp763
S'y'
F23
sS'x'
F1238
sbsssbba(igamelib.misc
Beauty
p764
(igamelib.data
SaveData
p765
(dp766
g6
(dp767
S'instance'
p768
(dp769
g10
I01
sg11
F133.17824906909917
sg12
F1.9426570408553649
sg13
I18
sg14
g15
sg16
I01
sg17
(igamelib.math2d
Vector2
p770
(dp771
S'y'
F485
sS'x'
F254
sbsssbba(igamelib.misc
Beauty
p772
(igamelib.data
SaveData
p773
(dp774
g6
(dp775
S'instance'
p776
(dp777
g10
I01
sg11
F101.71856506038023
sg12
F1.217373319846478
sg13
I18
sg14
g85
sg16
I01
sg17
(igamelib.math2d
Vector2
p778
(dp779
S'y'
F703
sS'x'
F743
sbsssbba(igamelib.misc
Markable
p780
(igamelib.data
SaveData
p781
(dp782
g6
(dp783
S'instance'
p784
(dp785
g10
I01
sg11
F-1800
sg12
F1
sg13
I10
sg14
g34
sg16
I01
sg17
(igamelib.math2d
Vector2
p786
(dp787
S'y'
F160
sS'x'
F736
sbsssbba(igamelib.misc
Beauty
p788
(igamelib.data
SaveData
p789
(dp790
g6
(dp791
S'instance'
p792
(dp793
g10
I01
sg11
F161.70436864303062
sg12
F1.9479653171459825
sg13
I18
sg14
g15
sg16
I01
sg17
(igamelib.math2d
Vector2
p794
(dp795
S'y'
F140
sS'x'
F374
sbsssbba(igamelib.misc
Markable
p796
(igamelib.data
SaveData
p797
(dp798
g6
(dp799
S'instance'
p800
(dp801
g10
I01
sg11
F-1800
sg12
F1
sg13
I10
sg14
g34
sg16
I01
sg17
(igamelib.math2d
Vector2
p802
(dp803
S'y'
F416
sS'x'
F416
sbsssbba(igamelib.misc
Markable
p804
(igamelib.data
SaveData
p805
(dp806
g6
(dp807
S'instance'
p808
(dp809
g10
I01
sg11
F-1170
sg12
F1
sg13
I10
sg14
S'path_X.png'
p810
sg16
I01
sg17
(igamelib.math2d
Vector2
p811
(dp812
S'y'
F480
sS'x'
F736
sbsssbba(igamelib.misc
Beauty
p813
(igamelib.data
SaveData
p814
(dp815
g6
(dp816
S'instance'
p817
(dp818
g10
I01
sg11
F312.56985033724578
sg12
F1.2030170678209051
sg13
I18
sg14
g85
sg16
I01
sg17
(igamelib.math2d
Vector2
p819
(dp820
S'y'
F700
sS'x'
F268
sbsssbba(igamelib.misc
Markable
p821
(igamelib.data
SaveData
p822
(dp823
g6
(dp824
S'instance'
p825
(dp826
g10
I01
sg11
F-180
sg12
F1
sg13
I10
sg14
g102
sg16
I01
sg17
(igamelib.math2d
Vector2
p827
(dp828
S'y'
F288
sS'x'
F864
sbsssbba(igamelib.misc
Beauty
p829
(igamelib.data
SaveData
p830
(dp831
g6
(dp832
S'instance'
p833
(dp834
g10
I01
sg11
F59.592446360875016
sg12
F1.5323121709949004
sg13
I18
sg14
g85
sg16
I01
sg17
(igamelib.math2d
Vector2
p835
(dp836
S'y'
F699
sS'x'
F358
sbsssbba(igamelib.misc
Markable
p837
(igamelib.data
SaveData
p838
(dp839
g6
(dp840
S'instance'
p841
(dp842
g10
I01
sg11
F-1080
sg12
F1
sg13
I10
sg14
g426
sg16
I01
sg17
(igamelib.math2d
Vector2
p843
(dp844
S'y'
F544
sS'x'
F800
sbsssbba(igamelib.misc
Markable
p845
(igamelib.data
SaveData
p846
(dp847
g6
(dp848
S'instance'
p849
(dp850
g10
I01
sg11
F-1890
sg12
F1
sg13
I10
sg14
g34
sg16
I01
sg17
(igamelib.math2d
Vector2
p851
(dp852
S'y'
F224
sS'x'
F608
sbsssbba(igamelib.misc
Beauty
p853
(igamelib.data
SaveData
p854
(dp855
g6
(dp856
S'instance'
p857
(dp858
g10
I01
sg11
F344.09661050367976
sg12
F1.5442681208850912
sg13
I18
sg14
g85
sg16
I01
sg17
(igamelib.math2d
Vector2
p859
(dp860
S'y'
F651
sS'x'
F792
sbsssbba(igamelib.misc
Beauty
p861
(igamelib.data
SaveData
p862
(dp863
g6
(dp864
S'instance'
p865
(dp866
g10
I01
sg11
F105.39472179772052
sg12
F0.85381703617754057
sg13
I18
sg14
g15
sg16
I01
sg17
(igamelib.math2d
Vector2
p867
(dp868
S'y'
F667
sS'x'
F94
sbsssbba(igamelib.misc
Markable
p869
(igamelib.data
SaveData
p870
(dp871
g6
(dp872
S'instance'
p873
(dp874
g10
I01
sg11
F-1350
sg12
F1
sg13
I10
sg14
g34
sg16
I01
sg17
(igamelib.math2d
Vector2
p875
(dp876
S'y'
F480
sS'x'
F608
sbsssbbatRp877
.