c__builtin__
set
p1
((lp2
(igamelib.misc
Markable
p3
(igamelib.data
SaveData
p4
(dp5
S'classes'
p6
(dp7
S'instance'
p8
(dp9
S'__visible'
p10
I01
sS'_rotation'
p11
F-990
sS'_Scale'
p12
F1
sS'_z_index'
p13
I10
sS'_TextureName'
p14
S'path_straight.png'
p15
sS'__renderCallback'
p16
I01
sS'_position'
p17
(igamelib.math2d
Vector2
p18
(dp19
S'y'
F480
sS'x'
F352
sbsssbba(igamelib.misc
Markable
p20
(igamelib.data
SaveData
p21
(dp22
g6
(dp23
S'instance'
p24
(dp25
g10
I01
sg11
F0
sg12
F1
sg13
I10
sg14
g15
sg16
I01
sg17
(igamelib.math2d
Vector2
p26
(dp27
S'y'
F352
sS'x'
F608
sbsssbba(igamelib.misc
Beauty
p28
(igamelib.data
SaveData
p29
(dp30
g6
(dp31
S'instance'
p32
(dp33
g10
I01
sg11
F68.322290427350396
sg12
F1.9082045979266802
sg13
I18
sg14
S'deco_tree.png'
p34
sg16
I01
sg17
(igamelib.math2d
Vector2
p35
(dp36
S'y'
F610
sS'x'
F370
sbsssbba(igamelib.misc
Beauty
p37
(igamelib.data
SaveData
p38
(dp39
g6
(dp40
S'instance'
p41
(dp42
g10
I01
sg11
F355.03896938937271
sg12
F0.71532879113148007
sg13
I18
sg14
g34
sg16
I01
sg17
(igamelib.math2d
Vector2
p43
(dp44
S'y'
F344
sS'x'
F159
sbsssbba(igamelib.buildings
Beergarden
p45
(igamelib.data
SaveData
p46
(dp47
g6
(dp48
S'instance'
p49
(dp50
g10
I01
sS'path'
p51
(igamelib.pathfinding
Path
p52
(igamelib.data
SaveData
p53
(dp54
g6
(dp55
S'instance'
p56
(dp57
g10
I01
sS'_Start'
p58
(igamelib.pathfinding
Waypoint
p59
(igamelib.data
SaveData
p60
(dp61
g6
(dp62
S'instance'
p63
(dp64
S'_previous'
p65
NsS'_next'
p66
(igamelib.pathfinding
Waypoint
p67
(igamelib.data
SaveData
p68
(dp69
g6
(dp70
S'instance'
p71
(dp72
g65
g59
sg66
(igamelib.pathfinding
Waypoint
p73
(igamelib.data
SaveData
p74
(dp75
g6
(dp76
S'instance'
p77
(dp78
g65
g67
sg66
(igamelib.pathfinding
Waypoint
p79
(igamelib.data
SaveData
p80
(dp81
g6
(dp82
S'instance'
p83
(dp84
g65
g73
sg66
(igamelib.pathfinding
Waypoint
p85
(igamelib.data
SaveData
p86
(dp87
g6
(dp88
S'instance'
p89
(dp90
g65
g79
sg66
(igamelib.pathfinding
Waypoint
p91
(igamelib.data
SaveData
p92
(dp93
g6
(dp94
S'instance'
p95
(dp96
g65
g85
sg66
Nsg17
(igamelib.math2d
Vector2
p97
(dp98
S'y'
F479
sS'x'
F948
sbsssbbsg17
(igamelib.math2d
Vector2
p99
(dp100
S'y'
F481
sS'x'
F609
sbsssbbsg17
(igamelib.math2d
Vector2
p101
(dp102
S'y'
F415
sS'x'
F606
sbsssbbsg17
(igamelib.math2d
Vector2
p103
(dp104
S'y'
F416
sS'x'
F414
sbsssbbsg17
(igamelib.math2d
Vector2
p105
(dp106
S'y'
F481
sS'x'
F415
sbsssbbsg17
(igamelib.math2d
Vector2
p107
(dp108
S'y'
F479
sS'x'
F333
sbsssbbsg16
I00
sssbbsg17
(igamelib.math2d
Vector2
p109
(dp110
S'y'
F480
sS'x'
F288
sbsg11
F-990
sg16
I01
sssbba(igamelib.misc
Markable
p111
(igamelib.data
SaveData
p112
(dp113
g6
(dp114
S'instance'
p115
(dp116
g10
I01
sg11
F0
sg12
F1
sg13
I10
sg14
S'path_corner.png'
p117
sg16
I01
sg17
(igamelib.math2d
Vector2
p118
(dp119
S'y'
F480
sS'x'
F608
sbsssbba(igamelib.misc
Beauty
p120
(igamelib.data
SaveData
p121
(dp122
g6
(dp123
S'instance'
p124
(dp125
g10
I01
sg11
F279.75383113131682
sg12
F1.9229538239459274
sg13
I18
sg14
g34
sg16
I01
sg17
(igamelib.math2d
Vector2
p126
(dp127
S'y'
F616
sS'x'
F105
sbsssbba(igamelib.misc
Beauty
p128
(igamelib.data
SaveData
p129
(dp130
g6
(dp131
S'instance'
p132
(dp133
g10
I01
sg11
F205.26146533670504
sg12
F1.0328528662519427
sg13
I18
sg14
g34
sg16
I01
sg17
(igamelib.math2d
Vector2
p134
(dp135
S'y'
F629
sS'x'
F997
sbsssbba(igamelib.misc
Beauty
p136
(igamelib.data
SaveData
p137
(dp138
g6
(dp139
S'instance'
p140
(dp141
g10
I01
sg11
F54.98529656735154
sg12
F1.6742924497224019
sg13
I18
sg14
g34
sg16
I01
sg17
(igamelib.math2d
Vector2
p142
(dp143
S'y'
F513
sS'x'
F511
sbsssbba(igamelib.misc
Markable
p144
(igamelib.data
SaveData
p145
(dp146
g6
(dp147
S'instance'
p148
(dp149
g10
I01
sg11
F-990
sg12
F1
sg13
I10
sg14
S'path_T.png'
p150
sg16
I01
sg17
(igamelib.math2d
Vector2
p151
(dp152
S'y'
F416
sS'x'
F608
sbsssbba(igamelib.misc
Markable
p153
(igamelib.data
SaveData
p154
(dp155
g6
(dp156
S'instance'
p157
(dp158
g10
I01
sg11
F-990
sg12
F1
sg13
I10
sg14
g15
sg16
I01
sg17
(igamelib.math2d
Vector2
p159
(dp160
S'y'
F416
sS'x'
F480
sbsssbba(igamelib.misc
Beauty
p161
(igamelib.data
SaveData
p162
(dp163
g6
(dp164
S'instance'
p165
(dp166
g10
I01
sg11
F26.845725744589593
sg12
F1.6139359008344585
sg13
I18
sg14
g34
sg16
I01
sg17
(igamelib.math2d
Vector2
p167
(dp168
S'y'
F64
sS'x'
F57
sbsssbba(igamelib.misc
Markable
p169
(igamelib.data
SaveData
p170
(dp171
g6
(dp172
S'instance'
p173
(dp174
g10
I01
sg11
F-270
sg12
F1
sg13
I10
sg14
g15
sg16
I01
sg17
(igamelib.math2d
Vector2
p175
(dp176
S'y'
F224
sS'x'
F480
sbsssbba(igamelib.misc
Beauty
p177
(igamelib.data
SaveData
p178
(dp179
g6
(dp180
S'instance'
p181
(dp182
g10
I01
sg11
F49.429361942006523
sg12
F0.51928514530141845
sg13
I18
sg14
g34
sg16
I01
sg17
(igamelib.math2d
Vector2
p183
(dp184
S'y'
F333
sS'x'
F258
sbsssbba(igamelib.misc
Markable
p185
(igamelib.data
SaveData
p186
(dp187
g6
(dp188
S'instance'
p189
(dp190
g10
I01
sg11
F-630
sg12
F1
sg13
I10
sg14
g117
sg16
I01
sg17
(igamelib.math2d
Vector2
p191
(dp192
S'y'
F288
sS'x'
F800
sbsssbba(igamelib.misc
Beauty
p193
(igamelib.data
SaveData
p194
(dp195
g6
(dp196
S'instance'
p197
(dp198
g10
I01
sg11
F28.516774496664365
sg12
F1.8910983933877463
sg13
I18
sg14
g34
sg16
I01
sg17
(igamelib.math2d
Vector2
p199
(dp200
S'y'
F189
sS'x'
F1018
sbsssbba(igamelib.misc
Beauty
p201
(igamelib.data
SaveData
p202
(dp203
g6
(dp204
S'instance'
p205
(dp206
g10
I01
sg11
F49.833727653321844
sg12
F1.4224760634025291
sg13
I18
sg14
g34
sg16
I01
sg17
(igamelib.math2d
Vector2
p207
(dp208
S'y'
F9
sS'x'
F1105
sbsssbba(igamelib.misc
Beauty
p209
(igamelib.data
SaveData
p210
(dp211
g6
(dp212
S'instance'
p213
(dp214
g10
I01
sg11
F257.88764974385032
sg12
F1.7031991658900436
sg13
I18
sg14
g34
sg16
I01
sg17
(igamelib.math2d
Vector2
p215
(dp216
S'y'
F79
sS'x'
F354
sbsssbba(igamelib.misc
Beauty
p217
(igamelib.data
SaveData
p218
(dp219
g6
(dp220
S'instance'
p221
(dp222
g10
I01
sg11
F311.08894651428022
sg12
F1.1695072003349025
sg13
I18
sg14
g34
sg16
I01
sg17
(igamelib.math2d
Vector2
p223
(dp224
S'y'
F341
sS'x'
F1020
sbsssbba(igamelib.misc
Markable
p225
(igamelib.data
SaveData
p226
(dp227
g6
(dp228
S'instance'
p229
(dp230
g10
I01
sg11
F-180
sg12
F1
sg13
I10
sg14
g117
sg16
I01
sg17
(igamelib.math2d
Vector2
p231
(dp232
S'y'
F224
sS'x'
F608
sbsssbba(igamelib.misc
Beauty
p233
(igamelib.data
SaveData
p234
(dp235
g6
(dp236
S'instance'
p237
(dp238
g10
I01
sg11
F184.58503386230635
sg12
F1.3828124130268595
sg13
I18
sg14
g34
sg16
I01
sg17
(igamelib.math2d
Vector2
p239
(dp240
S'y'
F208
sS'x'
F94
sbsssbba(igamelib.misc
Beauty
p241
(igamelib.data
SaveData
p242
(dp243
g6
(dp244
S'instance'
p245
(dp246
g10
I01
sg11
F16.907829998730474
sg12
F1.5260785818867941
sg13
I18
sg14
g34
sg16
I01
sg17
(igamelib.math2d
Vector2
p247
(dp248
S'y'
F15
sS'x'
F122
sbsssbba(igamelib.towers
Tank
p249
(igamelib.data
SaveData
p250
(dp251
g6
(dp252
S'instance'
p253
(dp254
g10
I01
sg17
(igamelib.math2d
Vector2
p255
(dp256
S'y'
F544
sS'x'
F800
sbsg11
F-90
sg16
I01
sssbba(igamelib.misc
Beauty
p257
(igamelib.data
SaveData
p258
(dp259
g6
(dp260
S'instance'
p261
(dp262
g10
I01
sg11
F33.0296640006937
sg12
F1.2270777771722601
sg13
I18
sg14
g34
sg16
I01
sg17
(igamelib.math2d
Vector2
p263
(dp264
S'y'
F646
sS'x'
F219
sbsssbba(igamelib.misc
Markable
p265
(igamelib.data
SaveData
p266
(dp267
g6
(dp268
S'instance'
p269
(dp270
g10
I01
sg11
F-1170
sg12
F1
sg13
I10
sg14
g117
sg16
I01
sg17
(igamelib.math2d
Vector2
p271
(dp272
S'y'
F416
sS'x'
F416
sbsssbba(igamelib.towers
Tank
p273
(igamelib.data
SaveData
p274
(dp275
g6
(dp276
S'instance'
p277
(dp278
g10
I01
sg17
(igamelib.math2d
Vector2
p279
(dp280
S'y'
F544
sS'x'
F736
sbsg11
F-112.5
sg16
I01
sssbba(igamelib.misc
Beauty
p281
(igamelib.data
SaveData
p282
(dp283
g6
(dp284
S'instance'
p285
(dp286
g10
I01
sg11
F128.95474001474807
sg12
F0.64999750378171073
sg13
I18
sg14
g34
sg16
I01
sg17
(igamelib.math2d
Vector2
p287
(dp288
S'y'
F284
sS'x'
F539
sbsssbba(igamelib.misc
Markable
p289
(igamelib.data
SaveData
p290
(dp291
g6
(dp292
S'instance'
p293
(dp294
g10
I01
sg11
F-990
sg12
F1
sg13
I10
sg14
g117
sg16
I01
sg17
(igamelib.math2d
Vector2
p295
(dp296
S'y'
F480
sS'x'
F416
sbsssbba(igamelib.misc
Markable
p297
(igamelib.data
SaveData
p298
(dp299
g6
(dp300
S'instance'
p301
(dp302
g10
I01
sg11
F-990
sg12
F1
sg13
I10
sg14
g15
sg16
I01
sg17
(igamelib.math2d
Vector2
p303
(dp304
S'y'
F416
sS'x'
F544
sbsssbba(igamelib.misc
Beauty
p305
(igamelib.data
SaveData
p306
(dp307
g6
(dp308
S'instance'
p309
(dp310
g10
I01
sg11
F304.13181876656211
sg12
F1.4097671709500261
sg13
I18
sg14
g34
sg16
I01
sg17
(igamelib.math2d
Vector2
p311
(dp312
S'y'
F644
sS'x'
F938
sbsssbba(igamelib.misc
Beauty
p313
(igamelib.data
SaveData
p314
(dp315
g6
(dp316
S'instance'
p317
(dp318
g10
I01
sg11
F67.866084115872226
sg12
F0.9529233517068656
sg13
I18
sg14
g34
sg16
I01
sg17
(igamelib.math2d
Vector2
p319
(dp320
S'y'
F120
sS'x'
F420
sbsssbba(igamelib.misc
Markable
p321
(igamelib.data
SaveData
p322
(dp323
g6
(dp324
S'instance'
p325
(dp326
g10
I01
sg11
F-450
sg12
F1
sg13
I10
sg14
g15
sg16
I01
sg17
(igamelib.math2d
Vector2
p327
(dp328
S'y'
F288
sS'x'
F672
sbsssbba(igamelib.misc
Beauty
p329
(igamelib.data
SaveData
p330
(dp331
g6
(dp332
S'instance'
p333
(dp334
g10
I01
sg11
F10.424272050613062
sg12
F0.60742195020388845
sg13
I18
sg14
g34
sg16
I01
sg17
(igamelib.math2d
Vector2
p335
(dp336
S'y'
F353
sS'x'
F667
sbsssbba(igamelib.misc
Markable
p337
(igamelib.data
SaveData
p338
(dp339
g6
(dp340
S'instance'
p341
(dp342
g10
I01
sg11
F-90
sg12
F1
sg13
I10
sg14
S'path_straight.png'
p343
sg16
I01
sg17
(igamelib.math2d
Vector2
p344
(dp345
S'y'
F480
sS'x'
F672
sbsssbba(igamelib.misc
Markable
p346
(igamelib.data
SaveData
p347
(dp348
g6
(dp349
S'instance'
p350
(dp351
g10
I01
sg11
F-720
sg12
F1
sg13
I10
sg14
g15
sg16
I01
sg17
(igamelib.math2d
Vector2
p352
(dp353
S'y'
F224
sS'x'
F800
sbsssbba(igamelib.misc
Markable
p354
(igamelib.data
SaveData
p355
(dp356
g6
(dp357
S'instance'
p358
(dp359
g10
I01
sg11
F-450
sg12
F1
sg13
I10
sg14
g15
sg16
I01
sg17
(igamelib.math2d
Vector2
p360
(dp361
S'y'
F288
sS'x'
F736
sbsssbba(igamelib.misc
Markable
p362
(igamelib.data
SaveData
p363
(dp364
g6
(dp365
S'instance'
p366
(dp367
g10
I01
sg11
F-270
sg12
F1
sg13
I10
sg14
g15
sg16
I01
sg17
(igamelib.math2d
Vector2
p368
(dp369
S'y'
F224
sS'x'
F544
sbsssbba(igamelib.misc
Beauty
p370
(igamelib.data
SaveData
p371
(dp372
g6
(dp373
S'instance'
p374
(dp375
g10
I01
sg11
F86.867133423636915
sg12
F0.68028852127459083
sg13
I18
sg14
g34
sg16
I01
sg17
(igamelib.math2d
Vector2
p376
(dp377
S'y'
F401
sS'x'
F867
sbsssbba(igamelib.misc
Beauty
p378
(igamelib.data
SaveData
p379
(dp380
g6
(dp381
S'instance'
p382
(dp383
g10
I01
sg11
F217.35217451145854
sg12
F1.8351303787287521
sg13
I18
sg14
g34
sg16
I01
sg17
(igamelib.math2d
Vector2
p384
(dp385
S'y'
F338
sS'x'
F390
sbsssbba(igamelib.misc
Markable
p386
(igamelib.data
SaveData
p387
(dp388
g6
(dp389
S'instance'
p390
(dp391
g10
I01
sg11
F90
sg12
F1
sg13
I10
sg14
g343
sg16
I01
sg17
(igamelib.math2d
Vector2
p392
(dp393
S'y'
F480
sS'x'
F736
sbsssbba(igamelib.misc
Markable
p394
(igamelib.data
SaveData
p395
(dp396
g6
(dp397
S'instance'
p398
(dp399
g10
I01
sg11
F90
sg12
F1
sg13
I10
sg14
g343
sg16
I01
sg17
(igamelib.math2d
Vector2
p400
(dp401
S'y'
F480
sS'x'
F864
sbsssbba(igamelib.misc
Beauty
p402
(igamelib.data
SaveData
p403
(dp404
g6
(dp405
S'instance'
p406
(dp407
g10
I01
sg11
F239.75468806020419
sg12
F1.3941480347001098
sg13
I18
sg14
g34
sg16
I01
sg17
(igamelib.math2d
Vector2
p408
(dp409
S'y'
F157
sS'x'
F695
sbsssbba(igamelib.misc
Beauty
p410
(igamelib.data
SaveData
p411
(dp412
g6
(dp413
S'instance'
p414
(dp415
g10
I01
sg11
F254.7484651298895
sg12
F1.3342643674906878
sg13
I18
sg14
g34
sg16
I01
sg17
(igamelib.math2d
Vector2
p416
(dp417
S'y'
F289
sS'x'
F2
sbsssbba(igamelib.misc
Beauty
p418
(igamelib.data
SaveData
p419
(dp420
g6
(dp421
S'instance'
p422
(dp423
g10
I01
sg11
F74.427145556093436
sg12
F0.66862595365103272
sg13
I18
sg14
g34
sg16
I01
sg17
(igamelib.math2d
Vector2
p424
(dp425
S'y'
F332
sS'x'
F8
sbsssbba(igamelib.buildings
HQ
p426
(igamelib.data
SaveData
p427
(dp428
g6
(dp429
S'instance'
p430
(dp431
g10
I01
sg17
(igamelib.math2d
Vector2
p432
(dp433
S'y'
F480
sS'x'
F992
sbsg11
F90
sg16
I01
sssbba(igamelib.misc
Beauty
p434
(igamelib.data
SaveData
p435
(dp436
g6
(dp437
S'instance'
p438
(dp439
g10
I01
sg11
F196.75124948600259
sg12
F0.60592166923199775
sg13
I18
sg14
g34
sg16
I01
sg17
(igamelib.math2d
Vector2
p440
(dp441
S'y'
F424
sS'x'
F356
sbsssbba(igamelib.misc
Beauty
p442
(igamelib.data
SaveData
p443
(dp444
g6
(dp445
S'instance'
p446
(dp447
g10
I01
sg11
F353.67332786728917
sg12
F1.9152095141873915
sg13
I18
sg14
g34
sg16
I01
sg17
(igamelib.math2d
Vector2
p448
(dp449
S'y'
F74
sS'x'
F553
sbsssbba(igamelib.misc
Beauty
p450
(igamelib.data
SaveData
p451
(dp452
g6
(dp453
S'instance'
p454
(dp455
g10
I01
sg11
F262.29031803421071
sg12
F1.533001782705588
sg13
I18
sg14
g34
sg16
I01
sg17
(igamelib.math2d
Vector2
p456
(dp457
S'y'
F624
sS'x'
F642
sbsssbba(igamelib.misc
Markable
p458
(igamelib.data
SaveData
p459
(dp460
g6
(dp461
S'instance'
p462
(dp463
g10
I01
sg11
F90
sg12
F1
sg13
I10
sg14
g343
sg16
I01
sg17
(igamelib.math2d
Vector2
p464
(dp465
S'y'
F480
sS'x'
F800
sbsssbba(igamelib.towers
Tank
p466
(igamelib.data
SaveData
p467
(dp468
g6
(dp469
S'instance'
p470
(dp471
g10
I01
sg17
(igamelib.math2d
Vector2
p472
(dp473
S'y'
F416
sS'x'
F800
sbsg11
F-90
sg16
I01
sssbba(igamelib.misc
Markable
p474
(igamelib.data
SaveData
p475
(dp476
g6
(dp477
S'instance'
p478
(dp479
g10
I01
sg11
F-270
sg12
F1
sg13
I10
sg14
g15
sg16
I01
sg17
(igamelib.math2d
Vector2
p480
(dp481
S'y'
F224
sS'x'
F416
sbsssbba(igamelib.misc
Beauty
p482
(igamelib.data
SaveData
p483
(dp484
g6
(dp485
S'instance'
p486
(dp487
g10
I01
sg11
F215.80895795717259
sg12
F0.51636011207536692
sg13
I18
sg14
g34
sg16
I01
sg17
(igamelib.math2d
Vector2
p488
(dp489
S'y'
F227
sS'x'
F730
sbsssbba(igamelib.misc
Beauty
p490
(igamelib.data
SaveData
p491
(dp492
g6
(dp493
S'instance'
p494
(dp495
g10
I01
sg11
F351.97852127187457
sg12
F1.178250034416048
sg13
I18
sg14
g34
sg16
I01
sg17
(igamelib.math2d
Vector2
p496
(dp497
S'y'
F651
sS'x'
F439
sbsssbba(igamelib.misc
Beauty
p498
(igamelib.data
SaveData
p499
(dp500
g6
(dp501
S'instance'
p502
(dp503
g10
I01
sg11
F23.75045950937151
sg12
F1.902682846571732
sg13
I18
sg14
g34
sg16
I01
sg17
(igamelib.math2d
Vector2
p504
(dp505
S'y'
F421
sS'x'
F79
sbsssbba(igamelib.misc
Markable
p506
(igamelib.data
SaveData
p507
(dp508
g6
(dp509
S'instance'
p510
(dp511
g10
I01
sg11
F-450
sg12
F1
sg13
I10
sg14
g150
sg16
I01
sg17
(igamelib.math2d
Vector2
p512
(dp513
S'y'
F288
sS'x'
F608
sbsssbba(igamelib.misc
Beauty
p514
(igamelib.data
SaveData
p515
(dp516
g6
(dp517
S'instance'
p518
(dp519
g10
I01
sg11
F210.5636056863047
sg12
F1.2114231508286
sg13
I18
sg14
g34
sg16
I01
sg17
(igamelib.math2d
Vector2
p520
(dp521
S'y'
F710
sS'x'
F275
sbsssbba(igamelib.buildings
FastFood
p522
(igamelib.data
SaveData
p523
(dp524
g6
(dp525
S'instance'
p526
(dp527
g10
I01
sg51
(igamelib.pathfinding
Path
p528
(igamelib.data
SaveData
p529
(dp530
g6
(dp531
S'instance'
p532
(dp533
g10
I01
sg58
(igamelib.pathfinding
Waypoint
p534
(igamelib.data
SaveData
p535
(dp536
g6
(dp537
S'instance'
p538
(dp539
g65
Nsg66
(igamelib.pathfinding
Waypoint
p540
(igamelib.data
SaveData
p541
(dp542
g6
(dp543
S'instance'
p544
(dp545
g65
g534
sg66
(igamelib.pathfinding
Waypoint
p546
(igamelib.data
SaveData
p547
(dp548
g6
(dp549
S'instance'
p550
(dp551
g65
g540
sg66
(igamelib.pathfinding
Waypoint
p552
(igamelib.data
SaveData
p553
(dp554
g6
(dp555
S'instance'
p556
(dp557
g65
g546
sg66
Nsg17
(igamelib.math2d
Vector2
p558
(dp559
S'y'
F480
sS'x'
F949
sbsssbbsg17
(igamelib.math2d
Vector2
p560
(dp561
S'y'
F477
sS'x'
F609
sbsssbbsg17
(igamelib.math2d
Vector2
p562
(dp563
S'y'
F221
sS'x'
F611
sbsssbbsg17
(igamelib.math2d
Vector2
p564
(dp565
S'y'
F220
sS'x'
F395
sbsssbbsg16
I00
sssbbsg17
(igamelib.math2d
Vector2
p566
(dp567
S'y'
F224
sS'x'
F352
sbsg11
F-270
sg16
I01
sssbba(igamelib.misc
Beauty
p568
(igamelib.data
SaveData
p569
(dp570
g6
(dp571
S'instance'
p572
(dp573
g10
I01
sg11
F51.352460577133115
sg12
F1.9890339149691045
sg13
I18
sg14
g34
sg16
I01
sg17
(igamelib.math2d
Vector2
p574
(dp575
S'y'
F720
sS'x'
F1047
sbsssbba(igamelib.misc
Beauty
p576
(igamelib.data
SaveData
p577
(dp578
g6
(dp579
S'instance'
p580
(dp581
g10
I01
sg11
F180.21708168560465
sg12
F0.98828356084350255
sg13
I18
sg14
g34
sg16
I01
sg17
(igamelib.math2d
Vector2
p582
(dp583
S'y'
F270
sS'x'
F195
sbsssbba(igamelib.buildings
Orphanage
p584
(igamelib.data
SaveData
p585
(dp586
g6
(dp587
S'instance'
p588
(dp589
g10
I01
sg51
(igamelib.pathfinding
Path
p590
(igamelib.data
SaveData
p591
(dp592
g6
(dp593
S'instance'
p594
(dp595
g10
I01
sg58
(igamelib.pathfinding
Waypoint
p596
(igamelib.data
SaveData
p597
(dp598
g6
(dp599
S'instance'
p600
(dp601
g65
Nsg66
(igamelib.pathfinding
Waypoint
p602
(igamelib.data
SaveData
p603
(dp604
g6
(dp605
S'instance'
p606
(dp607
g65
g596
sg66
(igamelib.pathfinding
Waypoint
p608
(igamelib.data
SaveData
p609
(dp610
g6
(dp611
S'instance'
p612
(dp613
g65
g602
sg66
(igamelib.pathfinding
Waypoint
p614
(igamelib.data
SaveData
p615
(dp616
g6
(dp617
S'instance'
p618
(dp619
g65
g608
sg66
(igamelib.pathfinding
Waypoint
p620
(igamelib.data
SaveData
p621
(dp622
g6
(dp623
S'instance'
p624
(dp625
g65
g614
sg66
(igamelib.pathfinding
Waypoint
p626
(igamelib.data
SaveData
p627
(dp628
g6
(dp629
S'instance'
p630
(dp631
g65
g620
sg66
(igamelib.pathfinding
Waypoint
p632
(igamelib.data
SaveData
p633
(dp634
g6
(dp635
S'instance'
p636
(dp637
g65
g626
sg66
Nsg17
(igamelib.math2d
Vector2
p638
(dp639
S'y'
F480
sS'x'
F951
sbsssbbsg17
(igamelib.math2d
Vector2
p640
(dp641
S'y'
F476
sS'x'
F609
sbsssbbsg17
(igamelib.math2d
Vector2
p642
(dp643
S'y'
F293
sS'x'
F612
sbsssbbsg17
(igamelib.math2d
Vector2
p644
(dp645
S'y'
F290
sS'x'
F800
sbsssbbsg17
(igamelib.math2d
Vector2
p646
(dp647
S'y'
F229
sS'x'
F799
sbsssbbsg17
(igamelib.math2d
Vector2
p648
(dp649
S'y'
F177
sS'x'
F776
sbsssbbsg17
(igamelib.math2d
Vector2
p650
(dp651
S'y'
F178
sS'x'
F817
sbsssbbsg16
I00
sssbbsg17
(igamelib.math2d
Vector2
p652
(dp653
S'y'
F160
sS'x'
F800
sbsg11
F-810
sg16
I01
sssbba(igamelib.misc
Beauty
p654
(igamelib.data
SaveData
p655
(dp656
g6
(dp657
S'instance'
p658
(dp659
g10
I01
sg11
F176.19409847672699
sg12
F1.6782464987945802
sg13
I18
sg14
g34
sg16
I01
sg17
(igamelib.math2d
Vector2
p660
(dp661
S'y'
F48
sS'x'
F854
sbsssbba(igamelib.misc
Beauty
p662
(igamelib.data
SaveData
p663
(dp664
g6
(dp665
S'instance'
p666
(dp667
g10
I01
sg11
F42.366384075370078
sg12
F0.74852723205456884
sg13
I18
sg14
g34
sg16
I01
sg17
(igamelib.math2d
Vector2
p668
(dp669
S'y'
F215
sS'x'
F670
sbsssbba(igamelib.towers
Tank
p670
(igamelib.data
SaveData
p671
(dp672
g6
(dp673
S'instance'
p674
(dp675
g10
I01
sg17
(igamelib.math2d
Vector2
p676
(dp677
S'y'
F416
sS'x'
F736
sbsg11
F-67.5
sg16
I01
sssbba(igamelib.misc
Beauty
p678
(igamelib.data
SaveData
p679
(dp680
g6
(dp681
S'instance'
p682
(dp683
g10
I01
sg11
F89.771518089088005
sg12
F1.2111754767635337
sg13
I18
sg14
g34
sg16
I01
sg17
(igamelib.math2d
Vector2
p684
(dp685
S'y'
F71
sS'x'
F929
sbsssbba(igamelib.misc
Markable
p686
(igamelib.data
SaveData
p687
(dp688
g6
(dp689
S'instance'
p690
(dp691
g10
I01
sg11
F90
sg12
F1
sg13
I10
sg14
g343
sg16
I01
sg17
(igamelib.math2d
Vector2
p692
(dp693
S'y'
F480
sS'x'
F928
sbsssbba(igamelib.misc
Beauty
p694
(igamelib.data
SaveData
p695
(dp696
g6
(dp697
S'instance'
p698
(dp699
g10
I01
sg11
F224.19728508433883
sg12
F0.88800126193018181
sg13
I18
sg14
g34
sg16
I01
sg17
(igamelib.math2d
Vector2
p700
(dp701
S'y'
F319
sS'x'
F531
sbsssbba(igamelib.misc
Beauty
p702
(igamelib.data
SaveData
p703
(dp704
g6
(dp705
S'instance'
p706
(dp707
g10
I01
sg11
F21.460558300239661
sg12
F1.0792079351307222
sg13
I18
sg14
g34
sg16
I01
sg17
(igamelib.math2d
Vector2
p708
(dp709
S'y'
F533
sS'x'
F82
sbsssbba(igamelib.misc
Markable
p710
(igamelib.data
SaveData
p711
(dp712
g6
(dp713
S'instance'
p714
(dp715
g10
I01
sg11
F-720
sg12
F1
sg13
I10
sg14
g15
sg16
I01
sg17
(igamelib.math2d
Vector2
p716
(dp717
S'y'
F160
sS'x'
F800
sbsssbbatRp718
.