c__builtin__
set
p1
((lp2
(igamelib.buildings
HQ
p3
(igamelib.data
SaveData
p4
(dp5
S'classes'
p6
(dp7
S'instance'
p8
(dp9
S'__visible'
p10
I01
sS'_position'
p11
(igamelib.math2d
Vector2
p12
(dp13
S'y'
F608
sS'x'
F928
sbsS'_rotation'
p14
F-360
sS'__renderCallback'
p15
I01
sssbba(igamelib.misc
Markable
p16
(igamelib.data
SaveData
p17
(dp18
g6
(dp19
S'instance'
p20
(dp21
g10
I01
sg14
F-2880
sS'_Scale'
p22
F1
sS'_z_index'
p23
I10
sS'_TextureName'
p24
S'path_straight.png'
p25
sg15
I01
sg11
(igamelib.math2d
Vector2
p26
(dp27
S'y'
F608
sS'x'
F800
sbsssbba(igamelib.misc
Markable
p28
(igamelib.data
SaveData
p29
(dp30
g6
(dp31
S'instance'
p32
(dp33
g10
I01
sg14
F-630
sg22
F1
sg23
I10
sg24
g25
sg15
I01
sg11
(igamelib.math2d
Vector2
p34
(dp35
S'y'
F288
sS'x'
F416
sbsssbba(igamelib.misc
Markable
p36
(igamelib.data
SaveData
p37
(dp38
g6
(dp39
S'instance'
p40
(dp41
g10
I01
sg14
F-900
sg22
F1
sg23
I10
sg24
S'path_straight.png'
p42
sg15
I01
sg11
(igamelib.math2d
Vector2
p43
(dp44
S'y'
F224
sS'x'
F672
sbsssbba(igamelib.misc
Beauty
p45
(igamelib.data
SaveData
p46
(dp47
g6
(dp48
S'instance'
p49
(dp50
g10
I01
sg14
F91.516436497204481
sg22
F1.6815122529486421
sg23
I18
sg24
S'deco_tree.png'
p51
sg15
I01
sg11
(igamelib.math2d
Vector2
p52
(dp53
S'y'
F7
sS'x'
F913
sbsssbba(igamelib.misc
Markable
p54
(igamelib.data
SaveData
p55
(dp56
g6
(dp57
S'instance'
p58
(dp59
g10
I01
sg14
F-360
sg22
F1
sg23
I10
sg24
g25
sg15
I01
sg11
(igamelib.math2d
Vector2
p60
(dp61
S'y'
F416
sS'x'
F480
sbsssbba(igamelib.misc
Markable
p62
(igamelib.data
SaveData
p63
(dp64
g6
(dp65
S'instance'
p66
(dp67
g10
I01
sg14
F-1710
sg22
F1
sg23
I10
sg24
g25
sg15
I01
sg11
(igamelib.math2d
Vector2
p68
(dp69
S'y'
F608
sS'x'
F288
sbsssbba(igamelib.misc
Beauty
p70
(igamelib.data
SaveData
p71
(dp72
g6
(dp73
S'instance'
p74
(dp75
g10
I01
sg14
F126.68358101940785
sg22
F1.9409902696874513
sg23
I18
sg24
g51
sg15
I01
sg11
(igamelib.math2d
Vector2
p76
(dp77
S'y'
F709
sS'x'
F1035
sbsssbba(igamelib.misc
Markable
p78
(igamelib.data
SaveData
p79
(dp80
g6
(dp81
S'instance'
p82
(dp83
g10
I01
sg14
F-1710
sg22
F1
sg23
I10
sg24
g25
sg15
I01
sg11
(igamelib.math2d
Vector2
p84
(dp85
S'y'
F608
sS'x'
F352
sbsssbba(igamelib.misc
Markable
p86
(igamelib.data
SaveData
p87
(dp88
g6
(dp89
S'instance'
p90
(dp91
g10
I01
sg14
F-270
sg22
F1
sg23
I10
sg24
g25
sg15
I01
sg11
(igamelib.math2d
Vector2
p92
(dp93
S'y'
F544
sS'x'
F672
sbsssbba(igamelib.misc
Beauty
p94
(igamelib.data
SaveData
p95
(dp96
g6
(dp97
S'instance'
p98
(dp99
g10
I01
sg14
F61.361270708130142
sg22
F1.5132781444150933
sg23
I18
sg24
g51
sg15
I01
sg11
(igamelib.math2d
Vector2
p100
(dp101
S'y'
F392
sS'x'
F46
sbsssbba(igamelib.towers
Artillery
p102
(igamelib.data
SaveData
p103
(dp104
g6
(dp105
S'instance'
p106
(dp107
g10
I01
sg11
(igamelib.math2d
Vector2
p108
(dp109
S'y'
F224
sS'x'
F800
sbsg14
F-1350
sg15
I01
sssbba(igamelib.misc
Markable
p110
(igamelib.data
SaveData
p111
(dp112
g6
(dp113
S'instance'
p114
(dp115
g10
I01
sg14
F-1620
sg22
F1
sg23
I10
sg24
S'path_corner.png'
p116
sg15
I01
sg11
(igamelib.math2d
Vector2
p117
(dp118
S'y'
F96
sS'x'
F1056
sbsssbba(igamelib.misc
Markable
p119
(igamelib.data
SaveData
p120
(dp121
g6
(dp122
S'instance'
p123
(dp124
g10
I01
sg14
F-2250
sg22
F1
sg23
I10
sg24
g25
sg15
I01
sg11
(igamelib.math2d
Vector2
p125
(dp126
S'y'
F608
sS'x'
F224
sbsssbba(igamelib.misc
Markable
p127
(igamelib.data
SaveData
p128
(dp129
g6
(dp130
S'instance'
p131
(dp132
g10
I01
sg14
F-1260
sg22
F1
sg23
I10
sg24
g116
sg15
I01
sg11
(igamelib.math2d
Vector2
p133
(dp134
S'y'
F96
sS'x'
F608
sbsssbba(igamelib.misc
Beauty
p135
(igamelib.data
SaveData
p136
(dp137
g6
(dp138
S'instance'
p139
(dp140
g10
I01
sg14
F74.258088312269166
sg22
F1.0089999447462485
sg23
I18
sg24
g51
sg15
I01
sg11
(igamelib.math2d
Vector2
p141
(dp142
S'y'
F481
sS'x'
F403
sbsssbba(igamelib.misc
Beauty
p143
(igamelib.data
SaveData
p144
(dp145
g6
(dp146
S'instance'
p147
(dp148
g10
I01
sg14
F262.44703396220183
sg22
F1.0522325774959251
sg23
I18
sg24
g51
sg15
I01
sg11
(igamelib.math2d
Vector2
p149
(dp150
S'y'
F214
sS'x'
F468
sbsssbba(igamelib.buildings
Orphanage
p151
(igamelib.data
SaveData
p152
(dp153
g6
(dp154
S'instance'
p155
(dp156
g10
I01
sS'path'
p157
(igamelib.pathfinding
Path
p158
(igamelib.data
SaveData
p159
(dp160
g6
(dp161
S'instance'
p162
(dp163
g10
I01
sS'_Start'
p164
(igamelib.pathfinding
Waypoint
p165
(igamelib.data
SaveData
p166
(dp167
g6
(dp168
S'instance'
p169
(dp170
S'_previous'
p171
NsS'_next'
p172
(igamelib.pathfinding
Waypoint
p173
(igamelib.data
SaveData
p174
(dp175
g6
(dp176
S'instance'
p177
(dp178
g171
g165
sg172
(igamelib.pathfinding
Waypoint
p179
(igamelib.data
SaveData
p180
(dp181
g6
(dp182
S'instance'
p183
(dp184
g171
g173
sg172
(igamelib.pathfinding
Waypoint
p185
(igamelib.data
SaveData
p186
(dp187
g6
(dp188
S'instance'
p189
(dp190
g171
g179
sg172
(igamelib.pathfinding
Waypoint
p191
(igamelib.data
SaveData
p192
(dp193
g6
(dp194
S'instance'
p195
(dp196
g171
g185
sg172
(igamelib.pathfinding
Waypoint
p197
(igamelib.data
SaveData
p198
(dp199
g6
(dp200
S'instance'
p201
(dp202
g171
g191
sg172
(igamelib.pathfinding
Waypoint
p203
(igamelib.data
SaveData
p204
(dp205
g6
(dp206
S'instance'
p207
(dp208
g171
g197
sg172
(igamelib.pathfinding
Waypoint
p209
(igamelib.data
SaveData
p210
(dp211
g6
(dp212
S'instance'
p213
(dp214
g171
g203
sg172
(igamelib.pathfinding
Waypoint
p215
(igamelib.data
SaveData
p216
(dp217
g6
(dp218
S'instance'
p219
(dp220
g171
g209
sg172
(igamelib.pathfinding
Waypoint
p221
(igamelib.data
SaveData
p222
(dp223
g6
(dp224
S'instance'
p225
(dp226
g171
g215
sg172
(igamelib.pathfinding
Waypoint
p227
(igamelib.data
SaveData
p228
(dp229
g6
(dp230
S'instance'
p231
(dp232
g171
g221
sg172
(igamelib.pathfinding
Waypoint
p233
(igamelib.data
SaveData
p234
(dp235
g6
(dp236
S'instance'
p237
(dp238
g171
g227
sg172
(igamelib.pathfinding
Waypoint
p239
(igamelib.data
SaveData
p240
(dp241
g6
(dp242
S'instance'
p243
(dp244
g171
g233
sg172
Nsg11
(igamelib.math2d
Vector2
p245
(dp246
S'y'
F564
sS'x'
F931
sbsssbbsg11
(igamelib.math2d
Vector2
p247
(dp248
S'y'
F94
sS'x'
F927
sbsssbbsg11
(igamelib.math2d
Vector2
p249
(dp250
S'y'
F93
sS'x'
F670
sbsssbbsg11
(igamelib.math2d
Vector2
p251
(dp252
S'y'
F348
sS'x'
F672
sbsssbbsg11
(igamelib.math2d
Vector2
p253
(dp254
S'y'
F351
sS'x'
F799
sbsssbbsg11
(igamelib.math2d
Vector2
p255
(dp256
S'y'
F538
sS'x'
F796
sbsssbbsg11
(igamelib.math2d
Vector2
p257
(dp258
S'y'
F542
sS'x'
F478
sbsssbbsg11
(igamelib.math2d
Vector2
p259
(dp260
S'y'
F289
sS'x'
F475
sbsssbbsg11
(igamelib.math2d
Vector2
p261
(dp262
S'y'
F286
sS'x'
F350
sbsssbbsg11
(igamelib.math2d
Vector2
p263
(dp264
S'y'
F412
sS'x'
F350
sbsssbbsg11
(igamelib.math2d
Vector2
p265
(dp266
S'y'
F414
sS'x'
F226
sbsssbbsg11
(igamelib.math2d
Vector2
p267
(dp268
S'y'
F429
sS'x'
F177
sbsssbbsg11
(igamelib.math2d
Vector2
p269
(dp270
S'y'
F395
sS'x'
F181
sbsssbbsg15
I00
sssbbsg11
(igamelib.math2d
Vector2
p271
(dp272
S'y'
F416
sS'x'
F160
sbsg14
F-1440
sg15
I01
sssbba(igamelib.misc
Markable
p273
(igamelib.data
SaveData
p274
(dp275
g6
(dp276
S'instance'
p277
(dp278
g10
I01
sg14
F-360
sg22
F1
sg23
I10
sg24
g42
sg15
I01
sg11
(igamelib.math2d
Vector2
p279
(dp280
S'y'
F288
sS'x'
F928
sbsssbba(igamelib.buildings
Orphanage
p281
(igamelib.data
SaveData
p282
(dp283
g6
(dp284
S'instance'
p285
(dp286
g10
I01
sg157
(igamelib.pathfinding
Path
p287
(igamelib.data
SaveData
p288
(dp289
g6
(dp290
S'instance'
p291
(dp292
g10
I01
sg164
(igamelib.pathfinding
Waypoint
p293
(igamelib.data
SaveData
p294
(dp295
g6
(dp296
S'instance'
p297
(dp298
g171
Nsg172
(igamelib.pathfinding
Waypoint
p299
(igamelib.data
SaveData
p300
(dp301
g6
(dp302
S'instance'
p303
(dp304
g171
g293
sg172
(igamelib.pathfinding
Waypoint
p305
(igamelib.data
SaveData
p306
(dp307
g6
(dp308
S'instance'
p309
(dp310
g171
g299
sg172
(igamelib.pathfinding
Waypoint
p311
(igamelib.data
SaveData
p312
(dp313
g6
(dp314
S'instance'
p315
(dp316
g171
g305
sg172
(igamelib.pathfinding
Waypoint
p317
(igamelib.data
SaveData
p318
(dp319
g6
(dp320
S'instance'
p321
(dp322
g171
g311
sg172
(igamelib.pathfinding
Waypoint
p323
(igamelib.data
SaveData
p324
(dp325
g6
(dp326
S'instance'
p327
(dp328
g171
g317
sg172
(igamelib.pathfinding
Waypoint
p329
(igamelib.data
SaveData
p330
(dp331
g6
(dp332
S'instance'
p333
(dp334
g171
g323
sg172
(igamelib.pathfinding
Waypoint
p335
(igamelib.data
SaveData
p336
(dp337
g6
(dp338
S'instance'
p339
(dp340
g171
g329
sg172
(igamelib.pathfinding
Waypoint
p341
(igamelib.data
SaveData
p342
(dp343
g6
(dp344
S'instance'
p345
(dp346
g171
g335
sg172
Nsg11
(igamelib.math2d
Vector2
p347
(dp348
S'y'
F565
sS'x'
F931
sbsssbbsg11
(igamelib.math2d
Vector2
p349
(dp350
S'y'
F93
sS'x'
F928
sbsssbbsg11
(igamelib.math2d
Vector2
p351
(dp352
S'y'
F96
sS'x'
F671
sbsssbbsg11
(igamelib.math2d
Vector2
p353
(dp354
S'y'
F346
sS'x'
F670
sbsssbbsg11
(igamelib.math2d
Vector2
p355
(dp356
S'y'
F350
sS'x'
F797
sbsssbbsg11
(igamelib.math2d
Vector2
p357
(dp358
S'y'
F541
sS'x'
F799
sbsssbbsg11
(igamelib.math2d
Vector2
p359
(dp360
S'y'
F580
sS'x'
F799
sbsssbbsg11
(igamelib.math2d
Vector2
p361
(dp362
S'y'
F626
sS'x'
F817
sbsssbbsg11
(igamelib.math2d
Vector2
p363
(dp364
S'y'
F620
sS'x'
F778
sbsssbbsg15
I00
sssbbsg11
(igamelib.math2d
Vector2
p365
(dp366
S'y'
F639
sS'x'
F796
sbsg14
F-990
sg15
I01
sssbba(igamelib.misc
Beauty
p367
(igamelib.data
SaveData
p368
(dp369
g6
(dp370
S'instance'
p371
(dp372
g10
I01
sg14
F16.344340171097489
sg22
F1.8381813744329274
sg23
I18
sg24
g51
sg15
I01
sg11
(igamelib.math2d
Vector2
p373
(dp374
S'y'
F118
sS'x'
F27
sbsssbba(igamelib.misc
Markable
p375
(igamelib.data
SaveData
p376
(dp377
g6
(dp378
S'instance'
p379
(dp380
g10
I01
sg14
F-1620
sg22
F1
sg23
I10
sg24
g25
sg15
I01
sg11
(igamelib.math2d
Vector2
p381
(dp382
S'y'
F672
sS'x'
F672
sbsssbba(igamelib.towers
Bunker
p383
(igamelib.data
SaveData
p384
(dp385
g6
(dp386
S'instance'
p387
(dp388
g10
I01
sg11
(igamelib.math2d
Vector2
p389
(dp390
S'y'
F160
sS'x'
F416
sbsg14
F-1530
sg15
I01
sssbba(igamelib.buildings
Beergarden
p391
(igamelib.data
SaveData
p392
(dp393
g6
(dp394
S'instance'
p395
(dp396
g10
I01
sg157
(igamelib.pathfinding
Path
p397
(igamelib.data
SaveData
p398
(dp399
g6
(dp400
S'instance'
p401
(dp402
g10
I01
sg164
(igamelib.pathfinding
Waypoint
p403
(igamelib.data
SaveData
p404
(dp405
g6
(dp406
S'instance'
p407
(dp408
g171
Nsg172
(igamelib.pathfinding
Waypoint
p409
(igamelib.data
SaveData
p410
(dp411
g6
(dp412
S'instance'
p413
(dp414
g171
g403
sg172
(igamelib.pathfinding
Waypoint
p415
(igamelib.data
SaveData
p416
(dp417
g6
(dp418
S'instance'
p419
(dp420
g171
g409
sg172
(igamelib.pathfinding
Waypoint
p421
(igamelib.data
SaveData
p422
(dp423
g6
(dp424
S'instance'
p425
(dp426
g171
g415
sg172
(igamelib.pathfinding
Waypoint
p427
(igamelib.data
SaveData
p428
(dp429
g6
(dp430
S'instance'
p431
(dp432
g171
g421
sg172
(igamelib.pathfinding
Waypoint
p433
(igamelib.data
SaveData
p434
(dp435
g6
(dp436
S'instance'
p437
(dp438
g171
g427
sg172
Nsg11
(igamelib.math2d
Vector2
p439
(dp440
S'y'
F568
sS'x'
F930
sbsssbbsg11
(igamelib.math2d
Vector2
p441
(dp442
S'y'
F96
sS'x'
F926
sbsssbbsg11
(igamelib.math2d
Vector2
p443
(dp444
S'y'
F98
sS'x'
F668
sbsssbbsg11
(igamelib.math2d
Vector2
p445
(dp446
S'y'
F348
sS'x'
F674
sbsssbbsg11
(igamelib.math2d
Vector2
p447
(dp448
S'y'
F351
sS'x'
F606
sbsssbbsg11
(igamelib.math2d
Vector2
p449
(dp450
S'y'
F413
sS'x'
F607
sbsssbbsg15
I00
sssbbsg11
(igamelib.math2d
Vector2
p451
(dp452
S'y'
F457
sS'x'
F612
sbsg14
F-2700
sg15
I01
sssbba(igamelib.misc
Markable
p453
(igamelib.data
SaveData
p454
(dp455
g6
(dp456
S'instance'
p457
(dp458
g10
I01
sg14
F-1710
sg22
F1
sg23
I10
sg24
S'path_straight.png'
p459
sg15
I01
sg11
(igamelib.math2d
Vector2
p460
(dp461
S'y'
F352
sS'x'
F736
sbsssbba(igamelib.misc
Markable
p462
(igamelib.data
SaveData
p463
(dp464
g6
(dp465
S'instance'
p466
(dp467
g10
I01
sg14
F-1710
sg22
F1
sg23
I10
sg24
S'path_straight.png'
p468
sg15
I01
sg11
(igamelib.math2d
Vector2
p469
(dp470
S'y'
F160
sS'x'
F992
sbsssbba(igamelib.towers
Bunker
p471
(igamelib.data
SaveData
p472
(dp473
g6
(dp474
S'instance'
p475
(dp476
g10
I01
sg11
(igamelib.math2d
Vector2
p477
(dp478
S'y'
F672
sS'x'
F352
sbsg14
F-2610
sg15
I01
sssbba(igamelib.misc
Markable
p479
(igamelib.data
SaveData
p480
(dp481
g6
(dp482
S'instance'
p483
(dp484
g10
I01
sg14
F-990
sg22
F1
sg23
I10
sg24
S'path_corner.png'
p485
sg15
I01
sg11
(igamelib.math2d
Vector2
p486
(dp487
S'y'
F352
sS'x'
F352
sbsssbba(igamelib.misc
Beauty
p488
(igamelib.data
SaveData
p489
(dp490
g6
(dp491
S'instance'
p492
(dp493
g10
I01
sg14
F281.64940761342046
sg22
F0.95226965174341127
sg23
I18
sg24
g51
sg15
I01
sg11
(igamelib.math2d
Vector2
p494
(dp495
S'y'
F278
sS'x'
F743
sbsssbba(igamelib.misc
Markable
p496
(igamelib.data
SaveData
p497
(dp498
g6
(dp499
S'instance'
p500
(dp501
g10
I01
sg14
F-3060
sg22
F1
sg23
I10
sg24
g25
sg15
I01
sg11
(igamelib.math2d
Vector2
p502
(dp503
S'y'
F416
sS'x'
F608
sbsssbba(igamelib.misc
Markable
p504
(igamelib.data
SaveData
p505
(dp506
g6
(dp507
S'instance'
p508
(dp509
g10
I01
sg14
F-1350
sg22
F1
sg23
I10
sg24
g485
sg15
I01
sg11
(igamelib.math2d
Vector2
p510
(dp511
S'y'
F416
sS'x'
F352
sbsssbba(igamelib.misc
Markable
p512
(igamelib.data
SaveData
p513
(dp514
g6
(dp515
S'instance'
p516
(dp517
g10
I01
sg14
F-2970
sg22
F1
sg23
I10
sg24
g485
sg15
I01
sg11
(igamelib.math2d
Vector2
p518
(dp519
S'y'
F352
sS'x'
F608
sbsssbba(igamelib.misc
Markable
p520
(igamelib.data
SaveData
p521
(dp522
g6
(dp523
S'instance'
p524
(dp525
g10
I01
sg14
F-630
sg22
F1
sg23
I10
sg24
g25
sg15
I01
sg11
(igamelib.math2d
Vector2
p526
(dp527
S'y'
F288
sS'x'
F288
sbsssbba(igamelib.misc
Beauty
p528
(igamelib.data
SaveData
p529
(dp530
g6
(dp531
S'instance'
p532
(dp533
g10
I01
sg14
F317.53436848846422
sg22
F1.4442353437780227
sg23
I18
sg24
g51
sg15
I01
sg11
(igamelib.math2d
Vector2
p534
(dp535
S'y'
F681
sS'x'
F1075
sbsssbba(igamelib.misc
Markable
p536
(igamelib.data
SaveData
p537
(dp538
g6
(dp539
S'instance'
p540
(dp541
g10
I01
sg14
F-1530
sg22
F1
sg23
I10
sg24
g25
sg15
I01
sg11
(igamelib.math2d
Vector2
p542
(dp543
S'y'
F608
sS'x'
F544
sbsssbba(igamelib.misc
Beauty
p544
(igamelib.data
SaveData
p545
(dp546
g6
(dp547
S'instance'
p548
(dp549
g10
I01
sg14
F53.147745986958462
sg22
F0.72113516208544914
sg23
I18
sg24
g51
sg15
I01
sg11
(igamelib.math2d
Vector2
p550
(dp551
S'y'
F356
sS'x'
F547
sbsssbba(igamelib.misc
Markable
p552
(igamelib.data
SaveData
p553
(dp554
g6
(dp555
S'instance'
p556
(dp557
g10
I01
sg14
F-630
sg22
F1
sg23
I10
sg24
g42
sg15
I01
sg11
(igamelib.math2d
Vector2
p558
(dp559
S'y'
F96
sS'x'
F736
sbsssbba(igamelib.misc
Markable
p560
(igamelib.data
SaveData
p561
(dp562
g6
(dp563
S'instance'
p564
(dp565
g10
I01
sg14
F-630
sg22
F1
sg23
I10
sg24
S'path_X.png'
p566
sg15
I01
sg11
(igamelib.math2d
Vector2
p567
(dp568
S'y'
F288
sS'x'
F352
sbsssbba(igamelib.misc
Markable
p569
(igamelib.data
SaveData
p570
(dp571
g6
(dp572
S'instance'
p573
(dp574
g10
I01
sg14
F-360
sg22
F1
sg23
I10
sg24
g42
sg15
I01
sg11
(igamelib.math2d
Vector2
p575
(dp576
S'y'
F352
sS'x'
F928
sbsssbba(igamelib.misc
Markable
p577
(igamelib.data
SaveData
p578
(dp579
g6
(dp580
S'instance'
p581
(dp582
g10
I01
sg14
F-630
sg22
F1
sg23
I10
sg24
g42
sg15
I01
sg11
(igamelib.math2d
Vector2
p583
(dp584
S'y'
F96
sS'x'
F864
sbsssbba(igamelib.misc
Markable
p585
(igamelib.data
SaveData
p586
(dp587
g6
(dp588
S'instance'
p589
(dp590
g10
I01
sg14
F-360
sg22
F1
sg23
I10
sg24
g42
sg15
I01
sg11
(igamelib.math2d
Vector2
p591
(dp592
S'y'
F480
sS'x'
F928
sbsssbba(igamelib.misc
Markable
p593
(igamelib.data
SaveData
p594
(dp595
g6
(dp596
S'instance'
p597
(dp598
g10
I01
sg14
F-270
sg22
F1
sg23
I10
sg24
g25
sg15
I01
sg11
(igamelib.math2d
Vector2
p599
(dp600
S'y'
F544
sS'x'
F544
sbsssbba(igamelib.towers
Tank
p601
(igamelib.data
SaveData
p602
(dp603
g6
(dp604
S'instance'
p605
(dp606
g10
I01
sg11
(igamelib.math2d
Vector2
p607
(dp608
S'y'
F352
sS'x'
F416
sbsg14
F-1575
sg15
I01
sssbba(igamelib.misc
Markable
p609
(igamelib.data
SaveData
p610
(dp611
g6
(dp612
S'instance'
p613
(dp614
g10
I01
sg14
F-900
sg22
F1
sg23
I10
sg24
g42
sg15
I01
sg11
(igamelib.math2d
Vector2
p615
(dp616
S'y'
F288
sS'x'
F672
sbsssbba(igamelib.towers
Tank
p617
(igamelib.data
SaveData
p618
(dp619
g6
(dp620
S'instance'
p621
(dp622
g10
I01
sg11
(igamelib.math2d
Vector2
p623
(dp624
S'y'
F672
sS'x'
F544
sbsg14
F-2655
sg15
I01
sssbba(igamelib.misc
Markable
p625
(igamelib.data
SaveData
p626
(dp627
g6
(dp628
S'instance'
p629
(dp630
g10
I01
sg14
F-1170
sg22
F1
sg23
I10
sg24
g116
sg15
I01
sg11
(igamelib.math2d
Vector2
p631
(dp632
S'y'
F96
sS'x'
F544
sbsssbba(igamelib.misc
Markable
p633
(igamelib.data
SaveData
p634
(dp635
g6
(dp636
S'instance'
p637
(dp638
g10
I01
sg14
F-270
sg22
F1
sg23
I10
sg24
g25
sg15
I01
sg11
(igamelib.math2d
Vector2
p639
(dp640
S'y'
F544
sS'x'
F736
sbsssbba(igamelib.misc
Beauty
p641
(igamelib.data
SaveData
p642
(dp643
g6
(dp644
S'instance'
p645
(dp646
g10
I01
sg14
F225.47222586983085
sg22
F1.3090404414443391
sg23
I18
sg24
g51
sg15
I01
sg11
(igamelib.math2d
Vector2
p647
(dp648
S'y'
F25
sS'x'
F191
sbsssbba(igamelib.misc
Markable
p649
(igamelib.data
SaveData
p650
(dp651
g6
(dp652
S'instance'
p653
(dp654
g10
I01
sg14
F-360
sg22
F1
sg23
I10
sg24
g25
sg15
I01
sg11
(igamelib.math2d
Vector2
p655
(dp656
S'y'
F352
sS'x'
F480
sbsssbba(igamelib.misc
Markable
p657
(igamelib.data
SaveData
p658
(dp659
g6
(dp660
S'instance'
p661
(dp662
g10
I01
sg14
F-1530
sg22
F1
sg23
I10
sg24
g25
sg15
I01
sg11
(igamelib.math2d
Vector2
p663
(dp664
S'y'
F416
sS'x'
F224
sbsssbba(igamelib.misc
Markable
p665
(igamelib.data
SaveData
p666
(dp667
g6
(dp668
S'instance'
p669
(dp670
g10
I01
sg14
F-900
sg22
F1
sg23
I10
sg24
g468
sg15
I01
sg11
(igamelib.math2d
Vector2
p671
(dp672
S'y'
F160
sS'x'
F544
sbsssbba(igamelib.misc
Beauty
p673
(igamelib.data
SaveData
p674
(dp675
g6
(dp676
S'instance'
p677
(dp678
g10
I01
sg14
F-37.893341563469278
sg22
F1.4735453969715231
sg23
I18
sg24
g51
sg15
I01
sg11
(igamelib.math2d
Vector2
p679
(dp680
S'y'
F406
sS'x'
F993
sbsssbba(igamelib.misc
Markable
p681
(igamelib.data
SaveData
p682
(dp683
g6
(dp684
S'instance'
p685
(dp686
g10
I01
sg14
F-2880
sg22
F1
sg23
I10
sg24
S'path_T.png'
p687
sg15
I01
sg11
(igamelib.math2d
Vector2
p688
(dp689
S'y'
F352
sS'x'
F672
sbsssbba(igamelib.misc
Markable
p690
(igamelib.data
SaveData
p691
(dp692
g6
(dp693
S'instance'
p694
(dp695
g10
I01
sg14
F-1800
sg22
F1
sg23
I10
sg24
g468
sg15
I01
sg11
(igamelib.math2d
Vector2
p696
(dp697
S'y'
F224
sS'x'
F1056
sbsssbba(igamelib.misc
Beauty
p698
(igamelib.data
SaveData
p699
(dp700
g6
(dp701
S'instance'
p702
(dp703
g10
I01
sg14
F266.66342784426348
sg22
F1.4236557060935005
sg23
I18
sg24
g51
sg15
I01
sg11
(igamelib.math2d
Vector2
p704
(dp705
S'y'
F549
sS'x'
F104
sbsssbba(igamelib.misc
Beauty
p706
(igamelib.data
SaveData
p707
(dp708
g6
(dp709
S'instance'
p710
(dp711
g10
I01
sg14
F332.95633963644627
sg22
F0.74722957908231791
sg23
I18
sg24
g51
sg15
I01
sg11
(igamelib.math2d
Vector2
p712
(dp713
S'y'
F583
sS'x'
F1038
sbsssbba(igamelib.misc
Markable
p714
(igamelib.data
SaveData
p715
(dp716
g6
(dp717
S'instance'
p718
(dp719
g10
I01
sg14
F-1350
sg22
F1
sg23
I10
sg24
g25
sg15
I01
sg11
(igamelib.math2d
Vector2
p720
(dp721
S'y'
F416
sS'x'
F288
sbsssbba(igamelib.misc
Markable
p722
(igamelib.data
SaveData
p723
(dp724
g6
(dp725
S'instance'
p726
(dp727
g10
I01
sg14
F0
sg22
F1
sg23
I10
sg24
g25
sg15
I01
sg11
(igamelib.math2d
Vector2
p728
(dp729
S'y'
F416
sS'x'
F800
sbsssbba(igamelib.misc
Beauty
p730
(igamelib.data
SaveData
p731
(dp732
g6
(dp733
S'instance'
p734
(dp735
g10
I01
sg14
F313.41879232843036
sg22
F1.6353558374427781
sg23
I18
sg24
g51
sg15
I01
sg11
(igamelib.math2d
Vector2
p736
(dp737
S'y'
F30
sS'x'
F17
sbsssbba(igamelib.buildings
Orphanage
p738
(igamelib.data
SaveData
p739
(dp740
g6
(dp741
S'instance'
p742
(dp743
g10
I01
sg157
(igamelib.pathfinding
Path
p744
(igamelib.data
SaveData
p745
(dp746
g6
(dp747
S'instance'
p748
(dp749
g10
I01
sg164
(igamelib.pathfinding
Waypoint
p750
(igamelib.data
SaveData
p751
(dp752
g6
(dp753
S'instance'
p754
(dp755
g171
Nsg172
(igamelib.pathfinding
Waypoint
p756
(igamelib.data
SaveData
p757
(dp758
g6
(dp759
S'instance'
p760
(dp761
g171
g750
sg172
(igamelib.pathfinding
Waypoint
p762
(igamelib.data
SaveData
p763
(dp764
g6
(dp765
S'instance'
p766
(dp767
g171
g756
sg172
(igamelib.pathfinding
Waypoint
p768
(igamelib.data
SaveData
p769
(dp770
g6
(dp771
S'instance'
p772
(dp773
g171
g762
sg172
(igamelib.pathfinding
Waypoint
p774
(igamelib.data
SaveData
p775
(dp776
g6
(dp777
S'instance'
p778
(dp779
g171
g768
sg172
(igamelib.pathfinding
Waypoint
p780
(igamelib.data
SaveData
p781
(dp782
g6
(dp783
S'instance'
p784
(dp785
g171
g774
sg172
Nsg11
(igamelib.math2d
Vector2
p786
(dp787
S'y'
F566
sS'x'
F928
sbsssbbsg11
(igamelib.math2d
Vector2
p788
(dp789
S'y'
F159
sS'x'
F926
sbsssbbsg11
(igamelib.math2d
Vector2
p790
(dp791
S'y'
F157
sS'x'
F1059
sbsssbbsg11
(igamelib.math2d
Vector2
p792
(dp793
S'y'
F122
sS'x'
F1065
sbsssbbsg11
(igamelib.math2d
Vector2
p794
(dp795
S'y'
F97
sS'x'
F1039
sbsssbbsg11
(igamelib.math2d
Vector2
p796
(dp797
S'y'
F65
sS'x'
F1048
sbsssbbsg15
I00
sssbbsg11
(igamelib.math2d
Vector2
p798
(dp799
S'y'
F83
sS'x'
F1021
sbsg14
F-1440
sg15
I01
sssbba(igamelib.misc
Markable
p800
(igamelib.data
SaveData
p801
(dp802
g6
(dp803
S'instance'
p804
(dp805
g10
I01
sg14
F-360
sg22
F1
sg23
I10
sg24
g42
sg15
I01
sg11
(igamelib.math2d
Vector2
p806
(dp807
S'y'
F224
sS'x'
F928
sbsssbba(igamelib.towers
Bunker
p808
(igamelib.data
SaveData
p809
(dp810
g6
(dp811
S'instance'
p812
(dp813
g10
I01
sg11
(igamelib.math2d
Vector2
p814
(dp815
S'y'
F544
sS'x'
F352
sbsg14
F-2520
sg15
I01
sssbba(igamelib.misc
Markable
p816
(igamelib.data
SaveData
p817
(dp818
g6
(dp819
S'instance'
p820
(dp821
g10
I01
sg14
F-540
sg22
F1
sg23
I10
sg24
S'path_corner.png'
p822
sg15
I01
sg11
(igamelib.math2d
Vector2
p823
(dp824
S'y'
F96
sS'x'
F928
sbsssbba(igamelib.misc
Beauty
p825
(igamelib.data
SaveData
p826
(dp827
g6
(dp828
S'instance'
p829
(dp830
g10
I01
sg14
F214.18111161581882
sg22
F1.2162234656923765
sg23
I18
sg24
g51
sg15
I01
sg11
(igamelib.math2d
Vector2
p831
(dp832
S'y'
F27
sS'x'
F465
sbsssbba(igamelib.towers
Bunker
p833
(igamelib.data
SaveData
p834
(dp835
g6
(dp836
S'instance'
p837
(dp838
g10
I01
sg11
(igamelib.math2d
Vector2
p839
(dp840
S'y'
F160
sS'x'
F288
sbsg14
F-1530
sg15
I01
sssbba(igamelib.misc
Markable
p841
(igamelib.data
SaveData
p842
(dp843
g6
(dp844
S'instance'
p845
(dp846
g10
I01
sg14
F-1530
sg22
F1
sg23
I10
sg24
g25
sg15
I01
sg11
(igamelib.math2d
Vector2
p847
(dp848
S'y'
F608
sS'x'
F608
sbsssbba(igamelib.misc
Markable
p849
(igamelib.data
SaveData
p850
(dp851
g6
(dp852
S'instance'
p853
(dp854
g10
I01
sg14
F0
sg22
F1
sg23
I10
sg24
g25
sg15
I01
sg11
(igamelib.math2d
Vector2
p855
(dp856
S'y'
F480
sS'x'
F800
sbsssbba(igamelib.misc
Markable
p857
(igamelib.data
SaveData
p858
(dp859
g6
(dp860
S'instance'
p861
(dp862
g10
I01
sg14
F-360
sg22
F1
sg23
I10
sg24
g25
sg15
I01
sg11
(igamelib.math2d
Vector2
p863
(dp864
S'y'
F480
sS'x'
F480
sbsssbba(igamelib.misc
Markable
p865
(igamelib.data
SaveData
p866
(dp867
g6
(dp868
S'instance'
p869
(dp870
g10
I01
sg14
F-630
sg22
F1
sg23
I10
sg24
g25
sg15
I01
sg11
(igamelib.math2d
Vector2
p871
(dp872
S'y'
F288
sS'x'
F224
sbsssbba(igamelib.misc
Markable
p873
(igamelib.data
SaveData
p874
(dp875
g6
(dp876
S'instance'
p877
(dp878
g10
I01
sg14
F-1800
sg22
F1
sg23
I10
sg24
g116
sg15
I01
sg11
(igamelib.math2d
Vector2
p879
(dp880
S'y'
F224
sS'x'
F544
sbsssbba(igamelib.misc
Markable
p881
(igamelib.data
SaveData
p882
(dp883
g6
(dp884
S'instance'
p885
(dp886
g10
I01
sg14
F-1620
sg22
F1
sg23
I10
sg24
g25
sg15
I01
sg11
(igamelib.math2d
Vector2
p887
(dp888
S'y'
F96
sS'x'
F352
sbsssbba(igamelib.towers
Tank
p889
(igamelib.data
SaveData
p890
(dp891
g6
(dp892
S'instance'
p893
(dp894
g10
I01
sg11
(igamelib.math2d
Vector2
p895
(dp896
S'y'
F352
sS'x'
F864
sbsg14
F-1440
sg15
I01
sssbba(igamelib.misc
Markable
p897
(igamelib.data
SaveData
p898
(dp899
g6
(dp900
S'instance'
p901
(dp902
g10
I01
sg14
F-1440
sg22
F1
sg23
I10
sg24
g485
sg15
I01
sg11
(igamelib.math2d
Vector2
p903
(dp904
S'y'
F608
sS'x'
F480
sbsssbba(igamelib.misc
Markable
p905
(igamelib.data
SaveData
p906
(dp907
g6
(dp908
S'instance'
p909
(dp910
g10
I01
sg14
F-360
sg22
F1
sg23
I10
sg24
g42
sg15
I01
sg11
(igamelib.math2d
Vector2
p911
(dp912
S'y'
F544
sS'x'
F928
sbsssbba(igamelib.misc
Markable
p913
(igamelib.data
SaveData
p914
(dp915
g6
(dp916
S'instance'
p917
(dp918
g10
I01
sg14
F-270
sg22
F1
sg23
I10
sg24
g25
sg15
I01
sg11
(igamelib.math2d
Vector2
p919
(dp920
S'y'
F544
sS'x'
F608
sbsssbba(igamelib.misc
Markable
p921
(igamelib.data
SaveData
p922
(dp923
g6
(dp924
S'instance'
p925
(dp926
g10
I01
sg14
F-1710
sg22
F1
sg23
I10
sg24
S'path_T.png'
p927
sg15
I01
sg11
(igamelib.math2d
Vector2
p928
(dp929
S'y'
F160
sS'x'
F1056
sbsssbba(igamelib.misc
Markable
p930
(igamelib.data
SaveData
p931
(dp932
g6
(dp933
S'instance'
p934
(dp935
g10
I01
sg14
F-630
sg22
F1
sg23
I10
sg24
g25
sg15
I01
sg11
(igamelib.math2d
Vector2
p936
(dp937
S'y'
F288
sS'x'
F160
sbsssbba(igamelib.misc
Beauty
p938
(igamelib.data
SaveData
p939
(dp940
g6
(dp941
S'instance'
p942
(dp943
g10
I01
sg14
F334.36896154345402
sg22
F1.1918088054137577
sg23
I18
sg24
g51
sg15
I01
sg11
(igamelib.math2d
Vector2
p944
(dp945
S'y'
F709
sS'x'
F491
sbsssbba(igamelib.misc
Beauty
p946
(igamelib.data
SaveData
p947
(dp948
g6
(dp949
S'instance'
p950
(dp951
g10
I01
sg14
F279.00342010619187
sg22
F1.5338653208945734
sg23
I18
sg24
g51
sg15
I01
sg11
(igamelib.math2d
Vector2
p952
(dp953
S'y'
F714
sS'x'
F122
sbsssbba(igamelib.buildings
Orphanage
p954
(igamelib.data
SaveData
p955
(dp956
g6
(dp957
S'instance'
p958
(dp959
g10
I01
sg157
(igamelib.pathfinding
Path
p960
(igamelib.data
SaveData
p961
(dp962
g6
(dp963
S'instance'
p964
(dp965
g10
I01
sg164
(igamelib.pathfinding
Waypoint
p966
(igamelib.data
SaveData
p967
(dp968
g6
(dp969
S'instance'
p970
(dp971
g171
Nsg172
(igamelib.pathfinding
Waypoint
p972
(igamelib.data
SaveData
p973
(dp974
g6
(dp975
S'instance'
p976
(dp977
g171
g966
sg172
(igamelib.pathfinding
Waypoint
p978
(igamelib.data
SaveData
p979
(dp980
g6
(dp981
S'instance'
p982
(dp983
g171
g972
sg172
(igamelib.pathfinding
Waypoint
p984
(igamelib.data
SaveData
p985
(dp986
g6
(dp987
S'instance'
p988
(dp989
g171
g978
sg172
(igamelib.pathfinding
Waypoint
p990
(igamelib.data
SaveData
p991
(dp992
g6
(dp993
S'instance'
p994
(dp995
g171
g984
sg172
(igamelib.pathfinding
Waypoint
p996
(igamelib.data
SaveData
p997
(dp998
g6
(dp999
S'instance'
p1000
(dp1001
g171
g990
sg172
(igamelib.pathfinding
Waypoint
p1002
(igamelib.data
SaveData
p1003
(dp1004
g6
(dp1005
S'instance'
p1006
(dp1007
g171
g996
sg172
(igamelib.pathfinding
Waypoint
p1008
(igamelib.data
SaveData
p1009
(dp1010
g6
(dp1011
S'instance'
p1012
(dp1013
g171
g1002
sg172
(igamelib.pathfinding
Waypoint
p1014
(igamelib.data
SaveData
p1015
(dp1016
g6
(dp1017
S'instance'
p1018
(dp1019
g171
g1008
sg172
(igamelib.pathfinding
Waypoint
p1020
(igamelib.data
SaveData
p1021
(dp1022
g6
(dp1023
S'instance'
p1024
(dp1025
g171
g1014
sg172
Nsg11
(igamelib.math2d
Vector2
p1026
(dp1027
S'y'
F565
sS'x'
F929
sbsssbbsg11
(igamelib.math2d
Vector2
p1028
(dp1029
S'y'
F93
sS'x'
F926
sbsssbbsg11
(igamelib.math2d
Vector2
p1030
(dp1031
S'y'
F93
sS'x'
F672
sbsssbbsg11
(igamelib.math2d
Vector2
p1032
(dp1033
S'y'
F163
sS'x'
F671
sbsssbbsg11
(igamelib.math2d
Vector2
p1034
(dp1035
S'y'
F157
sS'x'
F609
sbsssbbsg11
(igamelib.math2d
Vector2
p1036
(dp1037
S'y'
F99
sS'x'
F608
sbsssbbsg11
(igamelib.math2d
Vector2
p1038
(dp1039
S'y'
F97
sS'x'
F542
sbsssbbsg11
(igamelib.math2d
Vector2
p1040
(dp1041
S'y'
F204
sS'x'
F544
sbsssbbsg11
(igamelib.math2d
Vector2
p1042
(dp1043
S'y'
F237
sS'x'
F553
sbsssbbsg11
(igamelib.math2d
Vector2
p1044
(dp1045
S'y'
F291
sS'x'
F568
sbsssbbsg15
I00
sssbbsg11
(igamelib.math2d
Vector2
p1046
(dp1047
S'y'
F272
sS'x'
F588
sbsg14
F-900
sg15
I01
sssbba(igamelib.misc
Markable
p1048
(igamelib.data
SaveData
p1049
(dp1050
g6
(dp1051
S'instance'
p1052
(dp1053
g10
I01
sg14
F-1800
sg22
F1
sg23
I10
sg24
g468
sg15
I01
sg11
(igamelib.math2d
Vector2
p1054
(dp1055
S'y'
F416
sS'x'
F1056
sbsssbba(igamelib.misc
Markable
p1056
(igamelib.data
SaveData
p1057
(dp1058
g6
(dp1059
S'instance'
p1060
(dp1061
g10
I01
sg14
F-1080
sg22
F1
sg23
I10
sg24
g25
sg15
I01
sg11
(igamelib.math2d
Vector2
p1062
(dp1063
S'y'
F224
sS'x'
F352
sbsssbba(igamelib.misc
Markable
p1064
(igamelib.data
SaveData
p1065
(dp1066
g6
(dp1067
S'instance'
p1068
(dp1069
g10
I01
sg14
F-1530
sg22
F1
sg23
I10
sg24
g927
sg15
I01
sg11
(igamelib.math2d
Vector2
p1070
(dp1071
S'y'
F160
sS'x'
F928
sbsssbba(igamelib.misc
Beauty
p1072
(igamelib.data
SaveData
p1073
(dp1074
g6
(dp1075
S'instance'
p1076
(dp1077
g10
I01
sg14
F77.325228501640908
sg22
F0.74828316896889224
sg23
I18
sg24
g51
sg15
I01
sg11
(igamelib.math2d
Vector2
p1078
(dp1079
S'y'
F216
sS'x'
F995
sbsssbba(igamelib.buildings
Orphanage
p1080
(igamelib.data
SaveData
p1081
(dp1082
g6
(dp1083
S'instance'
p1084
(dp1085
g10
I01
sg157
(igamelib.pathfinding
Path
p1086
(igamelib.data
SaveData
p1087
(dp1088
g6
(dp1089
S'instance'
p1090
(dp1091
g10
I01
sg164
(igamelib.pathfinding
Waypoint
p1092
(igamelib.data
SaveData
p1093
(dp1094
g6
(dp1095
S'instance'
p1096
(dp1097
g171
Nsg172
(igamelib.pathfinding
Waypoint
p1098
(igamelib.data
SaveData
p1099
(dp1100
g6
(dp1101
S'instance'
p1102
(dp1103
g171
g1092
sg172
(igamelib.pathfinding
Waypoint
p1104
(igamelib.data
SaveData
p1105
(dp1106
g6
(dp1107
S'instance'
p1108
(dp1109
g171
g1098
sg172
(igamelib.pathfinding
Waypoint
p1110
(igamelib.data
SaveData
p1111
(dp1112
g6
(dp1113
S'instance'
p1114
(dp1115
g171
g1104
sg172
(igamelib.pathfinding
Waypoint
p1116
(igamelib.data
SaveData
p1117
(dp1118
g6
(dp1119
S'instance'
p1120
(dp1121
g171
g1110
sg172
(igamelib.pathfinding
Waypoint
p1122
(igamelib.data
SaveData
p1123
(dp1124
g6
(dp1125
S'instance'
p1126
(dp1127
g171
g1116
sg172
(igamelib.pathfinding
Waypoint
p1128
(igamelib.data
SaveData
p1129
(dp1130
g6
(dp1131
S'instance'
p1132
(dp1133
g171
g1122
sg172
(igamelib.pathfinding
Waypoint
p1134
(igamelib.data
SaveData
p1135
(dp1136
g6
(dp1137
S'instance'
p1138
(dp1139
g171
g1128
sg172
(igamelib.pathfinding
Waypoint
p1140
(igamelib.data
SaveData
p1141
(dp1142
g6
(dp1143
S'instance'
p1144
(dp1145
g171
g1134
sg172
(igamelib.pathfinding
Waypoint
p1146
(igamelib.data
SaveData
p1147
(dp1148
g6
(dp1149
S'instance'
p1150
(dp1151
g171
g1140
sg172
(igamelib.pathfinding
Waypoint
p1152
(igamelib.data
SaveData
p1153
(dp1154
g6
(dp1155
S'instance'
p1156
(dp1157
g171
g1146
sg172
Nsg11
(igamelib.math2d
Vector2
p1158
(dp1159
S'y'
F567
sS'x'
F930
sbsssbbsg11
(igamelib.math2d
Vector2
p1160
(dp1161
S'y'
F93
sS'x'
F927
sbsssbbsg11
(igamelib.math2d
Vector2
p1162
(dp1163
S'y'
F93
sS'x'
F669
sbsssbbsg11
(igamelib.math2d
Vector2
p1164
(dp1165
S'y'
F348
sS'x'
F674
sbsssbbsg11
(igamelib.math2d
Vector2
p1166
(dp1167
S'y'
F350
sS'x'
F799
sbsssbbsg11
(igamelib.math2d
Vector2
p1168
(dp1169
S'y'
F538
sS'x'
F799
sbsssbbsg11
(igamelib.math2d
Vector2
p1170
(dp1171
S'y'
F539
sS'x'
F480
sbsssbbsg11
(igamelib.math2d
Vector2
p1172
(dp1173
S'y'
F607
sS'x'
F482
sbsssbbsg11
(igamelib.math2d
Vector2
p1174
(dp1175
S'y'
F607
sS'x'
F290
sbsssbbsg11
(igamelib.math2d
Vector2
p1176
(dp1177
S'y'
F621
sS'x'
F236
sbsssbbsg11
(igamelib.math2d
Vector2
p1178
(dp1179
S'y'
F591
sS'x'
F245
sbsssbbsg15
I00
sssbbsg11
(igamelib.math2d
Vector2
p1180
(dp1181
S'y'
F608
sS'x'
F224
sbsg14
F-2160
sg15
I01
sssbba(igamelib.misc
Beauty
p1182
(igamelib.data
SaveData
p1183
(dp1184
g6
(dp1185
S'instance'
p1186
(dp1187
g10
I01
sg14
F228.81192321335232
sg22
F1.6753258005632736
sg23
I18
sg24
g51
sg15
I01
sg11
(igamelib.math2d
Vector2
p1188
(dp1189
S'y'
F588
sS'x'
F24
sbsssbba(igamelib.misc
Markable
p1190
(igamelib.data
SaveData
p1191
(dp1192
g6
(dp1193
S'instance'
p1194
(dp1195
g10
I01
sg14
F-1350
sg22
F1
sg23
I10
sg24
g927
sg15
I01
sg11
(igamelib.math2d
Vector2
p1196
(dp1197
S'y'
F160
sS'x'
F672
sbsssbba(igamelib.buildings
Orphanage
p1198
(igamelib.data
SaveData
p1199
(dp1200
g6
(dp1201
S'instance'
p1202
(dp1203
g10
I01
sg157
(igamelib.pathfinding
Path
p1204
(igamelib.data
SaveData
p1205
(dp1206
g6
(dp1207
S'instance'
p1208
(dp1209
g10
I01
sg164
(igamelib.pathfinding
Waypoint
p1210
(igamelib.data
SaveData
p1211
(dp1212
g6
(dp1213
S'instance'
p1214
(dp1215
g171
Nsg172
(igamelib.pathfinding
Waypoint
p1216
(igamelib.data
SaveData
p1217
(dp1218
g6
(dp1219
S'instance'
p1220
(dp1221
g171
g1210
sg172
(igamelib.pathfinding
Waypoint
p1222
(igamelib.data
SaveData
p1223
(dp1224
g6
(dp1225
S'instance'
p1226
(dp1227
g171
g1216
sg172
(igamelib.pathfinding
Waypoint
p1228
(igamelib.data
SaveData
p1229
(dp1230
g6
(dp1231
S'instance'
p1232
(dp1233
g171
g1222
sg172
(igamelib.pathfinding
Waypoint
p1234
(igamelib.data
SaveData
p1235
(dp1236
g6
(dp1237
S'instance'
p1238
(dp1239
g171
g1228
sg172
(igamelib.pathfinding
Waypoint
p1240
(igamelib.data
SaveData
p1241
(dp1242
g6
(dp1243
S'instance'
p1244
(dp1245
g171
g1234
sg172
(igamelib.pathfinding
Waypoint
p1246
(igamelib.data
SaveData
p1247
(dp1248
g6
(dp1249
S'instance'
p1250
(dp1251
g171
g1240
sg172
(igamelib.pathfinding
Waypoint
p1252
(igamelib.data
SaveData
p1253
(dp1254
g6
(dp1255
S'instance'
p1256
(dp1257
g171
g1246
sg172
(igamelib.pathfinding
Waypoint
p1258
(igamelib.data
SaveData
p1259
(dp1260
g6
(dp1261
S'instance'
p1262
(dp1263
g171
g1252
sg172
(igamelib.pathfinding
Waypoint
p1264
(igamelib.data
SaveData
p1265
(dp1266
g6
(dp1267
S'instance'
p1268
(dp1269
g171
g1258
sg172
(igamelib.pathfinding
Waypoint
p1270
(igamelib.data
SaveData
p1271
(dp1272
g6
(dp1273
S'instance'
p1274
(dp1275
g171
g1264
sg172
Nsg11
(igamelib.math2d
Vector2
p1276
(dp1277
S'y'
F565
sS'x'
F932
sbsssbbsg11
(igamelib.math2d
Vector2
p1278
(dp1279
S'y'
F92
sS'x'
F926
sbsssbbsg11
(igamelib.math2d
Vector2
p1280
(dp1281
S'y'
F94
sS'x'
F670
sbsssbbsg11
(igamelib.math2d
Vector2
p1282
(dp1283
S'y'
F348
sS'x'
F672
sbsssbbsg11
(igamelib.math2d
Vector2
p1284
(dp1285
S'y'
F353
sS'x'
F798
sbsssbbsg11
(igamelib.math2d
Vector2
p1286
(dp1287
S'y'
F540
sS'x'
F799
sbsssbbsg11
(igamelib.math2d
Vector2
p1288
(dp1289
S'y'
F541
sS'x'
F480
sbsssbbsg11
(igamelib.math2d
Vector2
p1290
(dp1291
S'y'
F605
sS'x'
F481
sbsssbbsg11
(igamelib.math2d
Vector2
p1292
(dp1293
S'y'
F606
sS'x'
F674
sbsssbbsg11
(igamelib.math2d
Vector2
p1294
(dp1295
S'y'
F654
sS'x'
F692
sbsssbbsg11
(igamelib.math2d
Vector2
p1296
(dp1297
S'y'
F647
sS'x'
F656
sbsssbbsg15
I00
sssbbsg11
(igamelib.math2d
Vector2
p1298
(dp1299
S'y'
F668
sS'x'
F671
sbsg14
F-2070
sg15
I01
sssbba(igamelib.misc
Markable
p1300
(igamelib.data
SaveData
p1301
(dp1302
g6
(dp1303
S'instance'
p1304
(dp1305
g10
I01
sg14
F-1530
sg22
F1
sg23
I10
sg24
g25
sg15
I01
sg11
(igamelib.math2d
Vector2
p1306
(dp1307
S'y'
F416
sS'x'
F160
sbsssbba(igamelib.misc
Markable
p1308
(igamelib.data
SaveData
p1309
(dp1310
g6
(dp1311
S'instance'
p1312
(dp1313
g10
I01
sg14
F-810
sg22
F1
sg23
I10
sg24
g822
sg15
I01
sg11
(igamelib.math2d
Vector2
p1314
(dp1315
S'y'
F96
sS'x'
F672
sbsssbba(igamelib.buildings
FastFood
p1316
(igamelib.data
SaveData
p1317
(dp1318
g6
(dp1319
S'instance'
p1320
(dp1321
g10
I01
sg157
(igamelib.pathfinding
Path
p1322
(igamelib.data
SaveData
p1323
(dp1324
g6
(dp1325
S'instance'
p1326
(dp1327
g10
I01
sg164
(igamelib.pathfinding
Waypoint
p1328
(igamelib.data
SaveData
p1329
(dp1330
g6
(dp1331
S'instance'
p1332
(dp1333
g171
Nsg172
(igamelib.pathfinding
Waypoint
p1334
(igamelib.data
SaveData
p1335
(dp1336
g6
(dp1337
S'instance'
p1338
(dp1339
g171
g1328
sg172
(igamelib.pathfinding
Waypoint
p1340
(igamelib.data
SaveData
p1341
(dp1342
g6
(dp1343
S'instance'
p1344
(dp1345
g171
g1334
sg172
(igamelib.pathfinding
Waypoint
p1346
(igamelib.data
SaveData
p1347
(dp1348
g6
(dp1349
S'instance'
p1350
(dp1351
g171
g1340
sg172
(igamelib.pathfinding
Waypoint
p1352
(igamelib.data
SaveData
p1353
(dp1354
g6
(dp1355
S'instance'
p1356
(dp1357
g171
g1346
sg172
(igamelib.pathfinding
Waypoint
p1358
(igamelib.data
SaveData
p1359
(dp1360
g6
(dp1361
S'instance'
p1362
(dp1363
g171
g1352
sg172
(igamelib.pathfinding
Waypoint
p1364
(igamelib.data
SaveData
p1365
(dp1366
g6
(dp1367
S'instance'
p1368
(dp1369
g171
g1358
sg172
(igamelib.pathfinding
Waypoint
p1370
(igamelib.data
SaveData
p1371
(dp1372
g6
(dp1373
S'instance'
p1374
(dp1375
g171
g1364
sg172
(igamelib.pathfinding
Waypoint
p1376
(igamelib.data
SaveData
p1377
(dp1378
g6
(dp1379
S'instance'
p1380
(dp1381
g171
g1370
sg172
Nsg11
(igamelib.math2d
Vector2
p1382
(dp1383
S'y'
F564
sS'x'
F930
sbsssbbsg11
(igamelib.math2d
Vector2
p1384
(dp1385
S'y'
F94
sS'x'
F927
sbsssbbsg11
(igamelib.math2d
Vector2
p1386
(dp1387
S'y'
F93
sS'x'
F669
sbsssbbsg11
(igamelib.math2d
Vector2
p1388
(dp1389
S'y'
F347
sS'x'
F670
sbsssbbsg11
(igamelib.math2d
Vector2
p1390
(dp1391
S'y'
F347
sS'x'
F800
sbsssbbsg11
(igamelib.math2d
Vector2
p1392
(dp1393
S'y'
F538
sS'x'
F800
sbsssbbsg11
(igamelib.math2d
Vector2
p1394
(dp1395
S'y'
F545
sS'x'
F478
sbsssbbsg11
(igamelib.math2d
Vector2
p1396
(dp1397
S'y'
F287
sS'x'
F475
sbsssbbsg11
(igamelib.math2d
Vector2
p1398
(dp1399
S'y'
F287
sS'x'
F107
sbsssbbsg15
I00
sssbbsg11
(igamelib.math2d
Vector2
p1400
(dp1401
S'y'
F286
sS'x'
F60
sbsg14
F-720
sg15
I01
sssbba(igamelib.misc
Markable
p1402
(igamelib.data
SaveData
p1403
(dp1404
g6
(dp1405
S'instance'
p1406
(dp1407
g10
I01
sg14
F-2790
sg22
F1
sg23
I10
sg24
g687
sg15
I01
sg11
(igamelib.math2d
Vector2
p1408
(dp1409
S'y'
F544
sS'x'
F800
sbsssbba(igamelib.misc
Markable
p1410
(igamelib.data
SaveData
p1411
(dp1412
g6
(dp1413
S'instance'
p1414
(dp1415
g10
I01
sg14
F-360
sg22
F1
sg23
I10
sg24
g42
sg15
I01
sg11
(igamelib.math2d
Vector2
p1416
(dp1417
S'y'
F416
sS'x'
F928
sbsssbba(igamelib.misc
Markable
p1418
(igamelib.data
SaveData
p1419
(dp1420
g6
(dp1421
S'instance'
p1422
(dp1423
g10
I01
sg14
F-1710
sg22
F1
sg23
I10
sg24
g25
sg15
I01
sg11
(igamelib.math2d
Vector2
p1424
(dp1425
S'y'
F608
sS'x'
F416
sbsssbba(igamelib.misc
Beauty
p1426
(igamelib.data
SaveData
p1427
(dp1428
g6
(dp1429
S'instance'
p1430
(dp1431
g10
I01
sg14
F278.89815180106575
sg22
F1.4053122616530518
sg23
I18
sg24
g51
sg15
I01
sg11
(igamelib.math2d
Vector2
p1432
(dp1433
S'y'
F484
sS'x'
F36
sbsssbba(igamelib.misc
Markable
p1434
(igamelib.data
SaveData
p1435
(dp1436
g6
(dp1437
S'instance'
p1438
(dp1439
g10
I01
sg14
F-630
sg22
F1
sg23
I10
sg24
g25
sg15
I01
sg11
(igamelib.math2d
Vector2
p1440
(dp1441
S'y'
F288
sS'x'
F96
sbsssbba(igamelib.towers
Tank
p1442
(igamelib.data
SaveData
p1443
(dp1444
g6
(dp1445
S'instance'
p1446
(dp1447
g10
I01
sg11
(igamelib.math2d
Vector2
p1448
(dp1449
S'y'
F224
sS'x'
F224
sbsg14
F-810
sg15
I01
sssbba(igamelib.misc
Markable
p1450
(igamelib.data
SaveData
p1451
(dp1452
g6
(dp1453
S'instance'
p1454
(dp1455
g10
I01
sg14
F-1620
sg22
F1
sg23
I10
sg24
g485
sg15
I01
sg11
(igamelib.math2d
Vector2
p1456
(dp1457
S'y'
F608
sS'x'
F672
sbsssbba(igamelib.misc
Markable
p1458
(igamelib.data
SaveData
p1459
(dp1460
g6
(dp1461
S'instance'
p1462
(dp1463
g10
I01
sg14
F-1800
sg22
F1
sg23
I10
sg24
g468
sg15
I01
sg11
(igamelib.math2d
Vector2
p1464
(dp1465
S'y'
F288
sS'x'
F1056
sbsssbba(igamelib.misc
Beauty
p1466
(igamelib.data
SaveData
p1467
(dp1468
g6
(dp1469
S'instance'
p1470
(dp1471
g10
I01
sg14
F221.81925788044308
sg22
F1.5028769252865724
sg23
I18
sg24
g51
sg15
I01
sg11
(igamelib.math2d
Vector2
p1472
(dp1473
S'y'
F507
sS'x'
F259
sbsssbba(igamelib.misc
Beauty
p1474
(igamelib.data
SaveData
p1475
(dp1476
g6
(dp1477
S'instance'
p1478
(dp1479
g10
I01
sg14
F58.025250474754536
sg22
F1.3472448609451566
sg23
I18
sg24
g51
sg15
I01
sg11
(igamelib.math2d
Vector2
p1480
(dp1481
S'y'
F37
sS'x'
F90
sbsssbba(igamelib.misc
Beauty
p1482
(igamelib.data
SaveData
p1483
(dp1484
g6
(dp1485
S'instance'
p1486
(dp1487
g10
I01
sg14
F352.2862277085402
sg22
F1.432252642994251
sg23
I18
sg24
g51
sg15
I01
sg11
(igamelib.math2d
Vector2
p1488
(dp1489
S'y'
F108
sS'x'
F115
sbsssbba(igamelib.towers
Artillery
p1490
(igamelib.data
SaveData
p1491
(dp1492
g6
(dp1493
S'instance'
p1494
(dp1495
g10
I01
sg11
(igamelib.math2d
Vector2
p1496
(dp1497
S'y'
F416
sS'x'
F736
sbsg14
F-810
sg15
I01
sssbba(igamelib.misc
Markable
p1498
(igamelib.data
SaveData
p1499
(dp1500
g6
(dp1501
S'instance'
p1502
(dp1503
g10
I01
sg14
F-540
sg22
F1
sg23
I10
sg24
g485
sg15
I01
sg11
(igamelib.math2d
Vector2
p1504
(dp1505
S'y'
F288
sS'x'
F480
sbsssbba(igamelib.misc
Markable
p1506
(igamelib.data
SaveData
p1507
(dp1508
g6
(dp1509
S'instance'
p1510
(dp1511
g10
I01
sg14
F-2610
sg22
F1
sg23
I10
sg24
g687
sg15
I01
sg11
(igamelib.math2d
Vector2
p1512
(dp1513
S'y'
F544
sS'x'
F480
sbsssbba(igamelib.misc
Markable
p1514
(igamelib.data
SaveData
p1515
(dp1516
g6
(dp1517
S'instance'
p1518
(dp1519
g10
I01
sg14
F-630
sg22
F1
sg23
I10
sg24
g42
sg15
I01
sg11
(igamelib.math2d
Vector2
p1520
(dp1521
S'y'
F96
sS'x'
F800
sbsssbba(igamelib.misc
Beauty
p1522
(igamelib.data
SaveData
p1523
(dp1524
g6
(dp1525
S'instance'
p1526
(dp1527
g10
I01
sg14
F27.488108927231298
sg22
F1.1197658220478757
sg23
I18
sg24
g51
sg15
I01
sg11
(igamelib.math2d
Vector2
p1528
(dp1529
S'y'
F502
sS'x'
F867
sbsssbba(igamelib.misc
Markable
p1530
(igamelib.data
SaveData
p1531
(dp1532
g6
(dp1533
S'instance'
p1534
(dp1535
g10
I01
sg14
F-1800
sg22
F1
sg23
I10
sg24
g468
sg15
I01
sg11
(igamelib.math2d
Vector2
p1536
(dp1537
S'y'
F352
sS'x'
F1056
sbsssbba(igamelib.misc
Markable
p1538
(igamelib.data
SaveData
p1539
(dp1540
g6
(dp1541
S'instance'
p1542
(dp1543
g10
I01
sg14
F-1620
sg22
F1
sg23
I10
sg24
S'path_corner.png'
p1544
sg15
I01
sg11
(igamelib.math2d
Vector2
p1545
(dp1546
S'y'
F352
sS'x'
F800
sbsssbba(igamelib.misc
Beauty
p1547
(igamelib.data
SaveData
p1548
(dp1549
g6
(dp1550
S'instance'
p1551
(dp1552
g10
I01
sg14
F336.25417648314675
sg22
F1.0085305946825145
sg23
I18
sg24
g51
sg15
I01
sg11
(igamelib.math2d
Vector2
p1553
(dp1554
S'y'
F688
sS'x'
F437
sbsssbba(igamelib.misc
Beauty
p1555
(igamelib.data
SaveData
p1556
(dp1557
g6
(dp1558
S'instance'
p1559
(dp1560
g10
I01
sg14
F351.53969295699062
sg22
F1.7159149571827077
sg23
I18
sg24
g51
sg15
I01
sg11
(igamelib.math2d
Vector2
p1561
(dp1562
S'y'
F677
sS'x'
F41
sbsssbba(igamelib.buildings
Beergarden
p1563
(igamelib.data
SaveData
p1564
(dp1565
g6
(dp1566
S'instance'
p1567
(dp1568
g10
I01
sg157
(igamelib.pathfinding
Path
p1569
(igamelib.data
SaveData
p1570
(dp1571
g6
(dp1572
S'instance'
p1573
(dp1574
g10
I01
sg164
(igamelib.pathfinding
Waypoint
p1575
(igamelib.data
SaveData
p1576
(dp1577
g6
(dp1578
S'instance'
p1579
(dp1580
g171
Nsg172
(igamelib.pathfinding
Waypoint
p1581
(igamelib.data
SaveData
p1582
(dp1583
g6
(dp1584
S'instance'
p1585
(dp1586
g171
g1575
sg172
(igamelib.pathfinding
Waypoint
p1587
(igamelib.data
SaveData
p1588
(dp1589
g6
(dp1590
S'instance'
p1591
(dp1592
g171
g1581
sg172
(igamelib.pathfinding
Waypoint
p1593
(igamelib.data
SaveData
p1594
(dp1595
g6
(dp1596
S'instance'
p1597
(dp1598
g171
g1587
sg172
Nsg11
(igamelib.math2d
Vector2
p1599
(dp1600
S'y'
F566
sS'x'
F928
sbsssbbsg11
(igamelib.math2d
Vector2
p1601
(dp1602
S'y'
F160
sS'x'
F929
sbsssbbsg11
(igamelib.math2d
Vector2
p1603
(dp1604
S'y'
F160
sS'x'
F1057
sbsssbbsg11
(igamelib.math2d
Vector2
p1605
(dp1606
S'y'
F444
sS'x'
F1058
sbsssbbsg15
I00
sssbbsg11
(igamelib.math2d
Vector2
p1607
(dp1608
S'y'
F488
sS'x'
F1041
sbsg14
F-1530
sg15
I01
sssbba(igamelib.buildings
Orphanage
p1609
(igamelib.data
SaveData
p1610
(dp1611
g6
(dp1612
S'instance'
p1613
(dp1614
g10
I01
sg157
(igamelib.pathfinding
Path
p1615
(igamelib.data
SaveData
p1616
(dp1617
g6
(dp1618
S'instance'
p1619
(dp1620
g10
I01
sg164
(igamelib.pathfinding
Waypoint
p1621
(igamelib.data
SaveData
p1622
(dp1623
g6
(dp1624
S'instance'
p1625
(dp1626
g171
Nsg172
(igamelib.pathfinding
Waypoint
p1627
(igamelib.data
SaveData
p1628
(dp1629
g6
(dp1630
S'instance'
p1631
(dp1632
g171
g1621
sg172
(igamelib.pathfinding
Waypoint
p1633
(igamelib.data
SaveData
p1634
(dp1635
g6
(dp1636
S'instance'
p1637
(dp1638
g171
g1627
sg172
(igamelib.pathfinding
Waypoint
p1639
(igamelib.data
SaveData
p1640
(dp1641
g6
(dp1642
S'instance'
p1643
(dp1644
g171
g1633
sg172
(igamelib.pathfinding
Waypoint
p1645
(igamelib.data
SaveData
p1646
(dp1647
g6
(dp1648
S'instance'
p1649
(dp1650
g171
g1639
sg172
(igamelib.pathfinding
Waypoint
p1651
(igamelib.data
SaveData
p1652
(dp1653
g6
(dp1654
S'instance'
p1655
(dp1656
g171
g1645
sg172
(igamelib.pathfinding
Waypoint
p1657
(igamelib.data
SaveData
p1658
(dp1659
g6
(dp1660
S'instance'
p1661
(dp1662
g171
g1651
sg172
(igamelib.pathfinding
Waypoint
p1663
(igamelib.data
SaveData
p1664
(dp1665
g6
(dp1666
S'instance'
p1667
(dp1668
g171
g1657
sg172
(igamelib.pathfinding
Waypoint
p1669
(igamelib.data
SaveData
p1670
(dp1671
g6
(dp1672
S'instance'
p1673
(dp1674
g171
g1663
sg172
(igamelib.pathfinding
Waypoint
p1675
(igamelib.data
SaveData
p1676
(dp1677
g6
(dp1678
S'instance'
p1679
(dp1680
g171
g1669
sg172
(igamelib.pathfinding
Waypoint
p1681
(igamelib.data
SaveData
p1682
(dp1683
g6
(dp1684
S'instance'
p1685
(dp1686
g171
g1675
sg172
(igamelib.pathfinding
Waypoint
p1687
(igamelib.data
SaveData
p1688
(dp1689
g6
(dp1690
S'instance'
p1691
(dp1692
g171
g1681
sg172
Nsg11
(igamelib.math2d
Vector2
p1693
(dp1694
S'y'
F566
sS'x'
F931
sbsssbbsg11
(igamelib.math2d
Vector2
p1695
(dp1696
S'y'
F94
sS'x'
F927
sbsssbbsg11
(igamelib.math2d
Vector2
p1697
(dp1698
S'y'
F96
sS'x'
F670
sbsssbbsg11
(igamelib.math2d
Vector2
p1699
(dp1700
S'y'
F348
sS'x'
F671
sbsssbbsg11
(igamelib.math2d
Vector2
p1701
(dp1702
S'y'
F351
sS'x'
F797
sbsssbbsg11
(igamelib.math2d
Vector2
p1703
(dp1704
S'y'
F536
sS'x'
F792
sbsssbbsg11
(igamelib.math2d
Vector2
p1705
(dp1706
S'y'
F545
sS'x'
F479
sbsssbbsg11
(igamelib.math2d
Vector2
p1707
(dp1708
S'y'
F285
sS'x'
F476
sbsssbbsg11
(igamelib.math2d
Vector2
p1709
(dp1710
S'y'
F283
sS'x'
F352
sbsssbbsg11
(igamelib.math2d
Vector2
p1711
(dp1712
S'y'
F121
sS'x'
F350
sbsssbbsg11
(igamelib.math2d
Vector2
p1713
(dp1714
S'y'
F76
sS'x'
F334
sbsssbbsg11
(igamelib.math2d
Vector2
p1715
(dp1716
S'y'
F79
sS'x'
F368
sbsssbbsg15
I00
sssbbsg11
(igamelib.math2d
Vector2
p1717
(dp1718
S'y'
F63
sS'x'
F354
sbsg14
F-1530
sg15
I01
sssbba(igamelib.misc
Beauty
p1719
(igamelib.data
SaveData
p1720
(dp1721
g6
(dp1722
S'instance'
p1723
(dp1724
g10
I01
sg14
F91.133817632290899
sg22
F1.8524754696172818
sg23
I18
sg24
g51
sg15
I01
sg11
(igamelib.math2d
Vector2
p1725
(dp1726
S'y'
F11
sS'x'
F543
sbsssbba(igamelib.misc
Markable
p1727
(igamelib.data
SaveData
p1728
(dp1729
g6
(dp1730
S'instance'
p1731
(dp1732
g10
I01
sg14
F-1620
sg22
F1
sg23
I10
sg24
g25
sg15
I01
sg11
(igamelib.math2d
Vector2
p1733
(dp1734
S'y'
F160
sS'x'
F352
sbsssbba(igamelib.misc
Markable
p1735
(igamelib.data
SaveData
p1736
(dp1737
g6
(dp1738
S'instance'
p1739
(dp1740
g10
I01
sg14
F-1440
sg22
F1
sg23
I10
sg24
g116
sg15
I01
sg11
(igamelib.math2d
Vector2
p1741
(dp1742
S'y'
F160
sS'x'
F608
sbsssbbatRp1743
.