c__builtin__
set
p1
((lp2
(igamelib.misc
Beauty
p3
(igamelib.data
SaveData
p4
(dp5
S'classes'
p6
(dp7
S'instance'
p8
(dp9
S'__visible'
p10
I01
sS'_rotation'
p11
F62.612096813252727
sS'_Scale'
p12
F1.3842952343855113
sS'_z_index'
p13
I18
sS'_TextureName'
p14
S'deco_tree.png'
p15
sS'__renderCallback'
p16
I01
sS'_position'
p17
(igamelib.math2d
Vector2
p18
(dp19
S'y'
F485.08474576271186
sS'x'
F1015.9322033898304
sbsssbba(igamelib.misc
Beauty
p20
(igamelib.data
SaveData
p21
(dp22
g6
(dp23
S'instance'
p24
(dp25
g10
I01
sg11
F101.49880512954698
sg12
F1.5942350625349533
sg13
I18
sg14
g15
sg16
I01
sg17
(igamelib.math2d
Vector2
p26
(dp27
S'y'
F468.81355932203388
sS'x'
F1084.0677966101694
sbsssbba(igamelib.towers
Bunker
p28
(igamelib.data
SaveData
p29
(dp30
g6
(dp31
S'instance'
p32
(dp33
g10
I01
sg17
(igamelib.math2d
Vector2
p34
(dp35
S'y'
F352
sS'x'
F416
sbsg11
F-540
sg16
I01
sssbba(igamelib.misc
Beauty
p36
(igamelib.data
SaveData
p37
(dp38
g6
(dp39
S'instance'
p40
(dp41
g10
I01
sg11
F163.33339277542484
sg12
F1.5065675106821541
sg13
I18
sg14
g15
sg16
I01
sg17
(igamelib.math2d
Vector2
p42
(dp43
S'y'
F608.13559322033893
sS'x'
F896.94915254237287
sbsssbba(igamelib.misc
Beauty
p44
(igamelib.data
SaveData
p45
(dp46
g6
(dp47
S'instance'
p48
(dp49
g10
I01
sg11
F40.029524413890442
sg12
F1.2326267188406688
sg13
I18
sg14
g15
sg16
I01
sg17
(igamelib.math2d
Vector2
p50
(dp51
S'y'
F692.54237288135585
sS'x'
F965.0847457627118
sbsssbba(igamelib.misc
Markable
p52
(igamelib.data
SaveData
p53
(dp54
g6
(dp55
S'instance'
p56
(dp57
g10
I01
sg11
F-90
sg12
F1
sg13
I10
sg14
S'path_straight.png'
p58
sg16
I01
sg17
(igamelib.math2d
Vector2
p59
(dp60
S'y'
F416
sS'x'
F544
sbsssbba(igamelib.misc
Markable
p61
(igamelib.data
SaveData
p62
(dp63
g6
(dp64
S'instance'
p65
(dp66
g10
I01
sg11
F-90
sg12
F1
sg13
I10
sg14
g58
sg16
I01
sg17
(igamelib.math2d
Vector2
p67
(dp68
S'y'
F416
sS'x'
F352
sbsssbba(igamelib.misc
Beauty
p69
(igamelib.data
SaveData
p70
(dp71
g6
(dp72
S'instance'
p73
(dp74
g10
I01
sg11
F342.08595284424132
sg12
F0.59214625918868902
sg13
I18
sg14
g15
sg16
I01
sg17
(igamelib.math2d
Vector2
p75
(dp76
S'y'
F262.37288135593218
sS'x'
F969.15254237288127
sbsssbba(igamelib.misc
Beauty
p77
(igamelib.data
SaveData
p78
(dp79
g6
(dp80
S'instance'
p81
(dp82
g10
I01
sg11
F32.554557472090252
sg12
F0.52399467212093276
sg13
I18
sg14
g15
sg16
I01
sg17
(igamelib.math2d
Vector2
p83
(dp84
S'y'
F34.576271186440678
sS'x'
F385.42372881355931
sbsssbba(igamelib.misc
Beauty
p85
(igamelib.data
SaveData
p86
(dp87
g6
(dp88
S'instance'
p89
(dp90
g10
I01
sg11
F138.10099433100766
sg12
F1.9079225445843473
sg13
I18
sg14
g15
sg16
I01
sg17
(igamelib.math2d
Vector2
p91
(dp92
S'y'
F23.389830508474574
sS'x'
F486.1016949152542
sbsssbba(igamelib.misc
Beauty
p93
(igamelib.data
SaveData
p94
(dp95
g6
(dp96
S'instance'
p97
(dp98
g10
I01
sg11
F343.36549845698624
sg12
F1.0388012645600952
sg13
I18
sg14
g15
sg16
I01
sg17
(igamelib.math2d
Vector2
p99
(dp100
S'y'
F219.66101694915253
sS'x'
F90.508474576271183
sbsssbba(igamelib.misc
Beauty
p101
(igamelib.data
SaveData
p102
(dp103
g6
(dp104
S'instance'
p105
(dp106
g10
I01
sg11
F205.48242018363476
sg12
F1.187917373484787
sg13
I18
sg14
g15
sg16
I01
sg17
(igamelib.math2d
Vector2
p107
(dp108
S'y'
F403.72881355932202
sS'x'
F45.762711864406775
sbsssbba(igamelib.misc
Beauty
p109
(igamelib.data
SaveData
p110
(dp111
g6
(dp112
S'instance'
p113
(dp114
g10
I01
sg11
F7.2226784492073248
sg12
F0.90201658348598523
sg13
I18
sg14
g15
sg16
I01
sg17
(igamelib.math2d
Vector2
p115
(dp116
S'y'
F498.30508474576271
sS'x'
F8.1355932203389827
sbsssbba(igamelib.misc
Beauty
p117
(igamelib.data
SaveData
p118
(dp119
g6
(dp120
S'instance'
p121
(dp122
g10
I01
sg11
F56.202516550968404
sg12
F0.45314921904813998
sg13
I18
sg14
g15
sg16
I01
sg17
(igamelib.math2d
Vector2
p123
(dp124
S'y'
F501.35593220338978
sS'x'
F1022.0338983050847
sbsssbba(igamelib.misc
Beauty
p125
(igamelib.data
SaveData
p126
(dp127
g6
(dp128
S'instance'
p129
(dp130
g10
I01
sg11
F52.570861003690339
sg12
F1.1594385772268645
sg13
I18
sg14
g15
sg16
I01
sg17
(igamelib.math2d
Vector2
p131
(dp132
S'y'
F683.38983050847457
sS'x'
F88.474576271186436
sbsssbba(igamelib.misc
Markable
p133
(igamelib.data
SaveData
p134
(dp135
g6
(dp136
S'instance'
p137
(dp138
g10
I01
sg11
F-630
sg12
F1
sg13
I10
sg14
S'path_straight.png'
p139
sg16
I01
sg17
(igamelib.math2d
Vector2
p140
(dp141
S'y'
F416
sS'x'
F672
sbsssbba(igamelib.misc
Beauty
p142
(igamelib.data
SaveData
p143
(dp144
g6
(dp145
S'instance'
p146
(dp147
g10
I01
sg11
F0.057556974526473681
sg12
F0.74631036831703246
sg13
I18
sg14
g15
sg16
I01
sg17
(igamelib.math2d
Vector2
p148
(dp149
S'y'
F560.33898305084745
sS'x'
F118.98305084745762
sbsssbba(igamelib.misc
Beauty
p150
(igamelib.data
SaveData
p151
(dp152
g6
(dp153
S'instance'
p154
(dp155
g10
I01
sg11
F311.56726647426933
sg12
F0.65921384122971549
sg13
I18
sg14
g15
sg16
I01
sg17
(igamelib.math2d
Vector2
p156
(dp157
S'y'
F30.508474576271183
sS'x'
F240
sbsssbba(igamelib.misc
Beauty
p158
(igamelib.data
SaveData
p159
(dp160
g6
(dp161
S'instance'
p162
(dp163
g10
I01
sg11
F334.44788055663105
sg12
F0.57178768570201299
sg13
I18
sg14
g15
sg16
I01
sg17
(igamelib.math2d
Vector2
p164
(dp165
S'y'
F648.81355932203383
sS'x'
F6.101694915254237
sbsssbba(igamelib.misc
Markable
p166
(igamelib.data
SaveData
p167
(dp168
g6
(dp169
S'instance'
p170
(dp171
g10
I01
sg11
F-450
sg12
F1
sg13
I10
sg14
g58
sg16
I01
sg17
(igamelib.math2d
Vector2
p172
(dp173
S'y'
F224
sS'x'
F352
sbsssbba(igamelib.misc
Beauty
p174
(igamelib.data
SaveData
p175
(dp176
g6
(dp177
S'instance'
p178
(dp179
g10
I01
sg11
F342.50248353281899
sg12
F0.50215393623937032
sg13
I18
sg14
g15
sg16
I01
sg17
(igamelib.math2d
Vector2
p180
(dp181
S'y'
F19.322033898305083
sS'x'
F614.23728813559319
sbsssbba(igamelib.misc
Beauty
p182
(igamelib.data
SaveData
p183
(dp184
g6
(dp185
S'instance'
p186
(dp187
g10
I01
sg11
F56.051162149307359
sg12
F0.67814209185560848
sg13
I18
sg14
g15
sg16
I01
sg17
(igamelib.math2d
Vector2
p188
(dp189
S'y'
F652.88135593220341
sS'x'
F969.15254237288127
sbsssbba(igamelib.misc
Beauty
p190
(igamelib.data
SaveData
p191
(dp192
g6
(dp193
S'instance'
p194
(dp195
g10
I01
sg11
F309.49655058984445
sg12
F1.8017659195444911
sg13
I18
sg14
g15
sg16
I01
sg17
(igamelib.math2d
Vector2
p196
(dp197
S'y'
F547.11864406779659
sS'x'
F1015.9322033898304
sbsssbba(igamelib.misc
Beauty
p198
(igamelib.data
SaveData
p199
(dp200
g6
(dp201
S'instance'
p202
(dp203
g10
I01
sg11
F244.57183550686233
sg12
F1.6384466771948272
sg13
I18
sg14
g15
sg16
I01
sg17
(igamelib.math2d
Vector2
p204
(dp205
S'y'
F670.16949152542372
sS'x'
F541.01694915254234
sbsssbba(igamelib.misc
Markable
p206
(igamelib.data
SaveData
p207
(dp208
g6
(dp209
S'instance'
p210
(dp211
g10
I01
sg11
F-450
sg12
F1
sg13
I10
sg14
g58
sg16
I01
sg17
(igamelib.math2d
Vector2
p212
(dp213
S'y'
F224
sS'x'
F544
sbsssbba(igamelib.misc
Markable
p214
(igamelib.data
SaveData
p215
(dp216
g6
(dp217
S'instance'
p218
(dp219
g10
I01
sg11
F-180
sg12
F1
sg13
I10
sg14
g58
sg16
I01
sg17
(igamelib.math2d
Vector2
p220
(dp221
S'y'
F288
sS'x'
F288
sbsssbba(igamelib.misc
Beauty
p222
(igamelib.data
SaveData
p223
(dp224
g6
(dp225
S'instance'
p226
(dp227
g10
I01
sg11
F277.98183959041046
sg12
F1.6095832221676856
sg13
I18
sg14
g15
sg16
I01
sg17
(igamelib.math2d
Vector2
p228
(dp229
S'y'
F533.89830508474574
sS'x'
F95.593220338983045
sbsssbba(igamelib.misc
Markable
p230
(igamelib.data
SaveData
p231
(dp232
g6
(dp233
S'instance'
p234
(dp235
g10
I01
sg11
F-180
sg12
F1
sg13
I10
sg14
g58
sg16
I01
sg17
(igamelib.math2d
Vector2
p236
(dp237
S'y'
F352
sS'x'
F288
sbsssbba(igamelib.misc
Beauty
p238
(igamelib.data
SaveData
p239
(dp240
g6
(dp241
S'instance'
p242
(dp243
g10
I01
sg11
F256.39616189147011
sg12
F1.2254585780637748
sg13
I18
sg14
g15
sg16
I01
sg17
(igamelib.math2d
Vector2
p244
(dp245
S'y'
F531.86440677966095
sS'x'
F6.101694915254237
sbsssbba(igamelib.misc
Beauty
p246
(igamelib.data
SaveData
p247
(dp248
g6
(dp249
S'instance'
p250
(dp251
g10
I01
sg11
F212.2269893337668
sg12
F1.7672117973914416
sg13
I18
sg14
g15
sg16
I01
sg17
(igamelib.math2d
Vector2
p252
(dp253
S'y'
F25.423728813559322
sS'x'
F389.49152542372877
sbsssbba(igamelib.misc
Markable
p254
(igamelib.data
SaveData
p255
(dp256
g6
(dp257
S'instance'
p258
(dp259
g10
I01
sg11
F-90
sg12
F1
sg13
I10
sg14
g58
sg16
I01
sg17
(igamelib.math2d
Vector2
p260
(dp261
S'y'
F416
sS'x'
F480
sbsssbba(igamelib.misc
Beauty
p262
(igamelib.data
SaveData
p263
(dp264
g6
(dp265
S'instance'
p266
(dp267
g10
I01
sg11
F39.259939394704148
sg12
F1.3340237328714224
sg13
I18
sg14
g15
sg16
I01
sg17
(igamelib.math2d
Vector2
p268
(dp269
S'y'
F22.372881355932201
sS'x'
F113.89830508474576
sbsssbba(igamelib.misc
Beauty
p270
(igamelib.data
SaveData
p271
(dp272
g6
(dp273
S'instance'
p274
(dp275
g10
I01
sg11
F62.037171057469294
sg12
F1.1153583507184508
sg13
I18
sg14
g15
sg16
I01
sg17
(igamelib.math2d
Vector2
p276
(dp277
S'y'
F624.40677966101691
sS'x'
F1026.1016949152543
sbsssbba(igamelib.misc
Beauty
p278
(igamelib.data
SaveData
p279
(dp280
g6
(dp281
S'instance'
p282
(dp283
g10
I01
sg11
F300.15680114486855
sg12
F1.0797830373811941
sg13
I18
sg14
g15
sg16
I01
sg17
(igamelib.math2d
Vector2
p284
(dp285
S'y'
F154.57627118644066
sS'x'
F6.101694915254237
sbsssbba(igamelib.misc
Beauty
p286
(igamelib.data
SaveData
p287
(dp288
g6
(dp289
S'instance'
p290
(dp291
g10
I01
sg11
F1.5682410559493221
sg12
F0.83038469384766156
sg13
I18
sg14
g15
sg16
I01
sg17
(igamelib.math2d
Vector2
p292
(dp293
S'y'
F315.25423728813558
sS'x'
F797.28813559322032
sbsssbba(igamelib.misc
Beauty
p294
(igamelib.data
SaveData
p295
(dp296
g6
(dp297
S'instance'
p298
(dp299
g10
I01
sg11
F234.37978952134159
sg12
F0.84924813847028546
sg13
I18
sg14
g15
sg16
I01
sg17
(igamelib.math2d
Vector2
p300
(dp301
S'y'
F656.94915254237287
sS'x'
F210.50847457627117
sbsssbba(igamelib.misc
Markable
p302
(igamelib.data
SaveData
p303
(dp304
g6
(dp305
S'instance'
p306
(dp307
g10
I01
sg11
F-630
sg12
F1
sg13
I10
sg14
g139
sg16
I01
sg17
(igamelib.math2d
Vector2
p308
(dp309
S'y'
F224
sS'x'
F608
sbsssbba(igamelib.misc
Beauty
p310
(igamelib.data
SaveData
p311
(dp312
g6
(dp313
S'instance'
p314
(dp315
g10
I01
sg11
F94.466370538100762
sg12
F0.93104839042166465
sg13
I18
sg14
g15
sg16
I01
sg17
(igamelib.math2d
Vector2
p316
(dp317
S'y'
F570.50847457627117
sS'x'
F40.677966101694913
sbsssbba(igamelib.misc
Beauty
p318
(igamelib.data
SaveData
p319
(dp320
g6
(dp321
S'instance'
p322
(dp323
g10
I01
sg11
F4.6747377537085288
sg12
F0.82950154987249003
sg13
I18
sg14
g15
sg16
I01
sg17
(igamelib.math2d
Vector2
p324
(dp325
S'y'
F699.66101694915255
sS'x'
F18.305084745762713
sbsssbba(igamelib.misc
Beauty
p326
(igamelib.data
SaveData
p327
(dp328
g6
(dp329
S'instance'
p330
(dp331
g10
I01
sg11
F323.72597857878645
sg12
F0.91852786241714224
sg13
I18
sg14
g15
sg16
I01
sg17
(igamelib.math2d
Vector2
p332
(dp333
S'y'
F699.66101694915255
sS'x'
F258.30508474576271
sbsssbba(igamelib.misc
Beauty
p334
(igamelib.data
SaveData
p335
(dp336
g6
(dp337
S'instance'
p338
(dp339
g10
I01
sg11
F75.637116083578974
sg12
F1.5401620625943224
sg13
I18
sg14
g15
sg16
I01
sg17
(igamelib.math2d
Vector2
p340
(dp341
S'y'
F596.94915254237287
sS'x'
F49.83050847457627
sbsssbba(igamelib.misc
Beauty
p342
(igamelib.data
SaveData
p343
(dp344
g6
(dp345
S'instance'
p346
(dp347
g10
I01
sg11
F189.95238106196572
sg12
F1.725824503982488
sg13
I18
sg14
g15
sg16
I01
sg17
(igamelib.math2d
Vector2
p348
(dp349
S'y'
F670.16949152542372
sS'x'
F128.13559322033899
sbsssbba(igamelib.misc
Beauty
p350
(igamelib.data
SaveData
p351
(dp352
g6
(dp353
S'instance'
p354
(dp355
g10
I01
sg11
F91.542185387793069
sg12
F0.92241833872269718
sg13
I18
sg14
g15
sg16
I01
sg17
(igamelib.math2d
Vector2
p356
(dp357
S'y'
F694.57627118644064
sS'x'
F994.57627118644064
sbsssbba(igamelib.misc
Beauty
p358
(igamelib.data
SaveData
p359
(dp360
g6
(dp361
S'instance'
p362
(dp363
g10
I01
sg11
F140.73609709048753
sg12
F0.62437664165210005
sg13
I18
sg14
g15
sg16
I01
sg17
(igamelib.math2d
Vector2
p364
(dp365
S'y'
F65.084745762711862
sS'x'
F693.5593220338983
sbsssbba(igamelib.misc
Beauty
p366
(igamelib.data
SaveData
p367
(dp368
g6
(dp369
S'instance'
p370
(dp371
g10
I01
sg11
F50.249002345574787
sg12
F1.1216781682178549
sg13
I18
sg14
g15
sg16
I01
sg17
(igamelib.math2d
Vector2
p372
(dp373
S'y'
F413.89830508474574
sS'x'
F772.88135593220341
sbsssbba(igamelib.misc
Beauty
p374
(igamelib.data
SaveData
p375
(dp376
g6
(dp377
S'instance'
p378
(dp379
g10
I01
sg11
F216.3906266419867
sg12
F1.7184259550086989
sg13
I18
sg14
g15
sg16
I01
sg17
(igamelib.math2d
Vector2
p380
(dp381
S'y'
F353.89830508474574
sS'x'
F51.864406779661017
sbsssbba(igamelib.misc
Beauty
p382
(igamelib.data
SaveData
p383
(dp384
g6
(dp385
S'instance'
p386
(dp387
g10
I01
sg11
F89.877458030222101
sg12
F0.7631894047969916
sg13
I18
sg14
g15
sg16
I01
sg17
(igamelib.math2d
Vector2
p388
(dp389
S'y'
F135.25423728813558
sS'x'
F136.27118644067795
sbsssbba(igamelib.misc
Beauty
p390
(igamelib.data
SaveData
p391
(dp392
g6
(dp393
S'instance'
p394
(dp395
g10
I01
sg11
F170.3449226931931
sg12
F1.7460668346200752
sg13
I18
sg14
g15
sg16
I01
sg17
(igamelib.math2d
Vector2
p396
(dp397
S'y'
F680.33898305084745
sS'x'
F1053.5593220338983
sbsssbba(igamelib.misc
Beauty
p398
(igamelib.data
SaveData
p399
(dp400
g6
(dp401
S'instance'
p402
(dp403
g10
I01
sg11
F196.28788729749164
sg12
F0.94605758653294614
sg13
I18
sg14
g15
sg16
I01
sg17
(igamelib.math2d
Vector2
p404
(dp405
S'y'
F63.050847457627114
sS'x'
F571.52542372881351
sbsssbba(igamelib.misc
Beauty
p406
(igamelib.data
SaveData
p407
(dp408
g6
(dp409
S'instance'
p410
(dp411
g10
I01
sg11
F175.3040806440932
sg12
F0.48905294395787385
sg13
I18
sg14
g15
sg16
I01
sg17
(igamelib.math2d
Vector2
p412
(dp413
S'y'
F678.30508474576266
sS'x'
F58.983050847457626
sbsssbba(igamelib.buildings
Orphanage
p414
(igamelib.data
SaveData
p415
(dp416
g6
(dp417
S'instance'
p418
(dp419
g10
I01
sS'path'
p420
(igamelib.pathfinding
Path
p421
(igamelib.data
SaveData
p422
(dp423
g6
(dp424
S'instance'
p425
(dp426
g10
I01
sS'_Start'
p427
(igamelib.pathfinding
Waypoint
p428
(igamelib.data
SaveData
p429
(dp430
g6
(dp431
S'instance'
p432
(dp433
S'_previous'
p434
NsS'_next'
p435
(igamelib.pathfinding
Waypoint
p436
(igamelib.data
SaveData
p437
(dp438
g6
(dp439
S'instance'
p440
(dp441
g434
g428
sg435
(igamelib.pathfinding
Waypoint
p442
(igamelib.data
SaveData
p443
(dp444
g6
(dp445
S'instance'
p446
(dp447
g434
g436
sg435
(igamelib.pathfinding
Waypoint
p448
(igamelib.data
SaveData
p449
(dp450
g6
(dp451
S'instance'
p452
(dp453
g434
g442
sg435
(igamelib.pathfinding
Waypoint
p454
(igamelib.data
SaveData
p455
(dp456
g6
(dp457
S'instance'
p458
(dp459
g434
g448
sg435
Nsg17
(igamelib.math2d
Vector2
p460
(dp461
S'y'
F503
sS'x'
F289
sbsssbbsg17
(igamelib.math2d
Vector2
p462
(dp463
S'y'
F421
sS'x'
F289
sbsssbbsg17
(igamelib.math2d
Vector2
p464
(dp465
S'y'
F421.44605116796441
sS'x'
F602.2691879866519
sbsssbbsg17
(igamelib.math2d
Vector2
p466
(dp467
S'y'
F402.93659621802004
sS'x'
F651.39043381535043
sbsssbbsg17
(igamelib.math2d
Vector2
p468
(dp469
S'y'
F429.27697441601782
sS'x'
F654.23804226918799
sbsssbbsg16
I00
sssbbsg17
(igamelib.math2d
Vector2
p470
(dp471
S'y'
F416
sS'x'
F672
sbsg11
F-540
sg16
I01
sssbba(igamelib.misc
Beauty
p472
(igamelib.data
SaveData
p473
(dp474
g6
(dp475
S'instance'
p476
(dp477
g10
I01
sg11
F8.6524523246925469
sg12
F0.65934380521584202
sg13
I18
sg14
g15
sg16
I01
sg17
(igamelib.math2d
Vector2
p478
(dp479
S'y'
F417.96610169491521
sS'x'
F36.610169491525426
sbsssbba(igamelib.misc
Beauty
p480
(igamelib.data
SaveData
p481
(dp482
g6
(dp483
S'instance'
p484
(dp485
g10
I01
sg11
F293.40494089823954
sg12
F1.4636277391375587
sg13
I18
sg14
g15
sg16
I01
sg17
(igamelib.math2d
Vector2
p486
(dp487
S'y'
F259.32203389830505
sS'x'
F73.220338983050851
sbsssbba(igamelib.misc
Beauty
p488
(igamelib.data
SaveData
p489
(dp490
g6
(dp491
S'instance'
p492
(dp493
g10
I01
sg11
F118.60107239859576
sg12
F1.1808869349723548
sg13
I18
sg14
g15
sg16
I01
sg17
(igamelib.math2d
Vector2
p494
(dp495
S'y'
F35.593220338983052
sS'x'
F739.32203389830511
sbsssbba(igamelib.misc
Beauty
p496
(igamelib.data
SaveData
p497
(dp498
g6
(dp499
S'instance'
p500
(dp501
g10
I01
sg11
F251.62530812163052
sg12
F1.3737566884276187
sg13
I18
sg14
g15
sg16
I01
sg17
(igamelib.math2d
Vector2
p502
(dp503
S'y'
F673.22033898305085
sS'x'
F416.94915254237287
sbsssbba(igamelib.misc
Beauty
p504
(igamelib.data
SaveData
p505
(dp506
g6
(dp507
S'instance'
p508
(dp509
g10
I01
sg11
F339.92890996462654
sg12
F0.67667112111921679
sg13
I18
sg14
g15
sg16
I01
sg17
(igamelib.math2d
Vector2
p510
(dp511
S'y'
F167.79661016949152
sS'x'
F961.01694915254234
sbsssbba(igamelib.misc
Beauty
p512
(igamelib.data
SaveData
p513
(dp514
g6
(dp515
S'instance'
p516
(dp517
g10
I01
sg11
F66.0890066936864
sg12
F1.6757023158235504
sg13
I18
sg14
g15
sg16
I01
sg17
(igamelib.math2d
Vector2
p518
(dp519
S'y'
F597.96610169491521
sS'x'
F692.54237288135585
sbsssbba(igamelib.misc
Beauty
p520
(igamelib.data
SaveData
p521
(dp522
g6
(dp523
S'instance'
p524
(dp525
g10
I01
sg11
F180.56891209997946
sg12
F1.6196297779046378
sg13
I18
sg14
g15
sg16
I01
sg17
(igamelib.math2d
Vector2
p526
(dp527
S'y'
F635.59322033898297
sS'x'
F112.88135593220339
sbsssbba(igamelib.towers
Tank
p528
(igamelib.data
SaveData
p529
(dp530
g6
(dp531
S'instance'
p532
(dp533
g10
I01
sg17
(igamelib.math2d
Vector2
p534
(dp535
S'y'
F160
sS'x'
F416
sbsg11
F-652.5
sg16
I01
sssbba(igamelib.misc
Markable
p536
(igamelib.data
SaveData
p537
(dp538
g6
(dp539
S'instance'
p540
(dp541
g10
I01
sg11
F-450
sg12
F1
sg13
I10
sg14
S'path_corner.png'
p542
sg16
I01
sg17
(igamelib.math2d
Vector2
p543
(dp544
S'y'
F224
sS'x'
F288
sbsssbba(igamelib.misc
Beauty
p545
(igamelib.data
SaveData
p546
(dp547
g6
(dp548
S'instance'
p549
(dp550
g10
I01
sg11
F98.813299644957667
sg12
F0.95184087645543758
sg13
I18
sg14
g15
sg16
I01
sg17
(igamelib.math2d
Vector2
p551
(dp552
S'y'
F652.88135593220341
sS'x'
F923.38983050847457
sbsssbba(igamelib.misc
Beauty
p553
(igamelib.data
SaveData
p554
(dp555
g6
(dp556
S'instance'
p557
(dp558
g10
I01
sg11
F295.07289815194429
sg12
F1.3789322989918769
sg13
I18
sg14
g15
sg16
I01
sg17
(igamelib.math2d
Vector2
p559
(dp560
S'y'
F642.71186440677968
sS'x'
F39.66101694915254
sbsssbba(igamelib.misc
Beauty
p561
(igamelib.data
SaveData
p562
(dp563
g6
(dp564
S'instance'
p565
(dp566
g10
I01
sg11
F114.04904559931788
sg12
F1.7053673326796153
sg13
I18
sg14
g15
sg16
I01
sg17
(igamelib.math2d
Vector2
p567
(dp568
S'y'
F425.08474576271186
sS'x'
F960
sbsssbba(igamelib.misc
Beauty
p569
(igamelib.data
SaveData
p570
(dp571
g6
(dp572
S'instance'
p573
(dp574
g10
I01
sg11
F33.589389997278616
sg12
F1.6881483289315133
sg13
I18
sg14
g15
sg16
I01
sg17
(igamelib.math2d
Vector2
p575
(dp576
S'y'
F383.38983050847457
sS'x'
F938.6440677966101
sbsssbba(igamelib.misc
Beauty
p577
(igamelib.data
SaveData
p578
(dp579
g6
(dp580
S'instance'
p581
(dp582
g10
I01
sg11
F47.172926807005702
sg12
F0.78428873055400783
sg13
I18
sg14
g15
sg16
I01
sg17
(igamelib.math2d
Vector2
p583
(dp584
S'y'
F165.76271186440678
sS'x'
F69.152542372881356
sbsssbba(igamelib.buildings
HQ
p585
(igamelib.data
SaveData
p586
(dp587
g6
(dp588
S'instance'
p589
(dp590
g10
I01
sg17
(igamelib.math2d
Vector2
p591
(dp592
S'y'
F544
sS'x'
F288
sbsg11
F0
sg16
I01
sssbba(igamelib.misc
Beauty
p593
(igamelib.data
SaveData
p594
(dp595
g6
(dp596
S'instance'
p597
(dp598
g10
I01
sg11
F306.94775237972658
sg12
F1.146976342190875
sg13
I18
sg14
g15
sg16
I01
sg17
(igamelib.math2d
Vector2
p599
(dp600
S'y'
F61.016949152542367
sS'x'
F988.47457627118638
sbsssbba(igamelib.misc
Beauty
p601
(igamelib.data
SaveData
p602
(dp603
g6
(dp604
S'instance'
p605
(dp606
g10
I01
sg11
F91.843936708355926
sg12
F1.172673253099203
sg13
I18
sg14
g15
sg16
I01
sg17
(igamelib.math2d
Vector2
p607
(dp608
S'y'
F574.57627118644064
sS'x'
F964.06779661016947
sbsssbba(igamelib.misc
Beauty
p609
(igamelib.data
SaveData
p610
(dp611
g6
(dp612
S'instance'
p613
(dp614
g10
I01
sg11
F88.229639640674691
sg12
F0.99574693594282193
sg13
I18
sg14
g15
sg16
I01
sg17
(igamelib.math2d
Vector2
p615
(dp616
S'y'
F118.98305084745762
sS'x'
F146.4406779661017
sbsssbba(igamelib.misc
Beauty
p617
(igamelib.data
SaveData
p618
(dp619
g6
(dp620
S'instance'
p621
(dp622
g10
I01
sg11
F283.60340117818487
sg12
F1.0012948724539492
sg13
I18
sg14
g15
sg16
I01
sg17
(igamelib.math2d
Vector2
p623
(dp624
S'y'
F620.33898305084745
sS'x'
F981.35593220338978
sbsssbba(igamelib.misc
Beauty
p625
(igamelib.data
SaveData
p626
(dp627
g6
(dp628
S'instance'
p629
(dp630
g10
I01
sg11
F334.36433286231829
sg12
F1.6608042629961499
sg13
I18
sg14
g15
sg16
I01
sg17
(igamelib.math2d
Vector2
p631
(dp632
S'y'
F24.406779661016948
sS'x'
F32.542372881355931
sbsssbba(igamelib.misc
Beauty
p633
(igamelib.data
SaveData
p634
(dp635
g6
(dp636
S'instance'
p637
(dp638
g10
I01
sg11
F190.71606852116463
sg12
F0.50452503983303654
sg13
I18
sg14
g15
sg16
I01
sg17
(igamelib.math2d
Vector2
p639
(dp640
S'y'
F443.38983050847457
sS'x'
F885.7627118644067
sbsssbba(igamelib.buildings
Orphanage
p641
(igamelib.data
SaveData
p642
(dp643
g6
(dp644
S'instance'
p645
(dp646
g10
I01
sg420
(igamelib.pathfinding
Path
p647
(igamelib.data
SaveData
p648
(dp649
g6
(dp650
S'instance'
p651
(dp652
g10
I01
sg427
(igamelib.pathfinding
Waypoint
p653
(igamelib.data
SaveData
p654
(dp655
g6
(dp656
S'instance'
p657
(dp658
g434
Nsg435
(igamelib.pathfinding
Waypoint
p659
(igamelib.data
SaveData
p660
(dp661
g6
(dp662
S'instance'
p663
(dp664
g434
g653
sg435
(igamelib.pathfinding
Waypoint
p665
(igamelib.data
SaveData
p666
(dp667
g6
(dp668
S'instance'
p669
(dp670
g434
g659
sg435
(igamelib.pathfinding
Waypoint
p671
(igamelib.data
SaveData
p672
(dp673
g6
(dp674
S'instance'
p675
(dp676
g434
g665
sg435
(igamelib.pathfinding
Waypoint
p677
(igamelib.data
SaveData
p678
(dp679
g6
(dp680
S'instance'
p681
(dp682
g434
g671
sg435
Nsg17
(igamelib.math2d
Vector2
p683
(dp684
S'y'
F507
sS'x'
F287
sbsssbbsg17
(igamelib.math2d
Vector2
p685
(dp686
S'y'
F226
sS'x'
F288
sbsssbbsg17
(igamelib.math2d
Vector2
p687
(dp688
S'y'
F225.67296996662961
sS'x'
F548.87652947719687
sbsssbbsg17
(igamelib.math2d
Vector2
p689
(dp690
S'y'
F211.43492769744159
sS'x'
F585.18353726362625
sbsssbbsg17
(igamelib.math2d
Vector2
p691
(dp692
S'y'
F238.48720800889879
sS'x'
F589.45494994438263
sbsssbbsg16
I00
sssbbsg17
(igamelib.math2d
Vector2
p693
(dp694
S'y'
F224
sS'x'
F608
sbsg11
F-540
sg16
I01
sssbba(igamelib.misc
Beauty
p695
(igamelib.data
SaveData
p696
(dp697
g6
(dp698
S'instance'
p699
(dp700
g10
I01
sg11
F4.1874192631364204
sg12
F1.4056966438901723
sg13
I18
sg14
g15
sg16
I01
sg17
(igamelib.math2d
Vector2
p701
(dp702
S'y'
F86.440677966101688
sS'x'
F22.372881355932201
sbsssbba(igamelib.misc
Beauty
p703
(igamelib.data
SaveData
p704
(dp705
g6
(dp706
S'instance'
p707
(dp708
g10
I01
sg11
F296.84883212232046
sg12
F0.55013937723032291
sg13
I18
sg14
g15
sg16
I01
sg17
(igamelib.math2d
Vector2
p709
(dp710
S'y'
F635.59322033898297
sS'x'
F868.47457627118638
sbsssbba(igamelib.misc
Beauty
p711
(igamelib.data
SaveData
p712
(dp713
g6
(dp714
S'instance'
p715
(dp716
g10
I01
sg11
F96.07581289673503
sg12
F1.2175966979083916
sg13
I18
sg14
g15
sg16
I01
sg17
(igamelib.math2d
Vector2
p717
(dp718
S'y'
F238.9830508474576
sS'x'
F1088.1355932203389
sbsssbba(igamelib.misc
Markable
p719
(igamelib.data
SaveData
p720
(dp721
g6
(dp722
S'instance'
p723
(dp724
g10
I01
sg11
F-630
sg12
F1
sg13
I10
sg14
g139
sg16
I01
sg17
(igamelib.math2d
Vector2
p725
(dp726
S'y'
F416
sS'x'
F608
sbsssbba(igamelib.misc
Beauty
p727
(igamelib.data
SaveData
p728
(dp729
g6
(dp730
S'instance'
p731
(dp732
g10
I01
sg11
F44.632690170322242
sg12
F1.2719862653674245
sg13
I18
sg14
g15
sg16
I01
sg17
(igamelib.math2d
Vector2
p733
(dp734
S'y'
F541.01694915254234
sS'x'
F1063.7288135593219
sbsssbba(igamelib.misc
Markable
p735
(igamelib.data
SaveData
p736
(dp737
g6
(dp738
S'instance'
p739
(dp740
g10
I01
sg11
F-90
sg12
F1
sg13
I10
sg14
S'path_T.png'
p741
sg16
I01
sg17
(igamelib.math2d
Vector2
p742
(dp743
S'y'
F416
sS'x'
F288
sbsssbba(igamelib.misc
Beauty
p744
(igamelib.data
SaveData
p745
(dp746
g6
(dp747
S'instance'
p748
(dp749
g10
I01
sg11
F97.737692044728533
sg12
F1.231399889203546
sg13
I18
sg14
g15
sg16
I01
sg17
(igamelib.math2d
Vector2
p750
(dp751
S'y'
F396.61016949152543
sS'x'
F1082.0338983050847
sbsssbba(igamelib.misc
Beauty
p752
(igamelib.data
SaveData
p753
(dp754
g6
(dp755
S'instance'
p756
(dp757
g10
I01
sg11
F256.38820635228234
sg12
F1.1800421000972288
sg13
I18
sg14
g15
sg16
I01
sg17
(igamelib.math2d
Vector2
p758
(dp759
S'y'
F391.52542372881356
sS'x'
F1044.4067796610168
sbsssbba(igamelib.misc
Beauty
p760
(igamelib.data
SaveData
p761
(dp762
g6
(dp763
S'instance'
p764
(dp765
g10
I01
sg11
F124.4153317041475
sg12
F0.89902610684147399
sg13
I18
sg14
g15
sg16
I01
sg17
(igamelib.math2d
Vector2
p766
(dp767
S'y'
F72.20338983050847
sS'x'
F652.88135593220341
sbsssbba(igamelib.misc
Markable
p768
(igamelib.data
SaveData
p769
(dp770
g6
(dp771
S'instance'
p772
(dp773
g10
I01
sg11
F-90
sg12
F1
sg13
I10
sg14
g58
sg16
I01
sg17
(igamelib.math2d
Vector2
p774
(dp775
S'y'
F416
sS'x'
F416
sbsssbba(igamelib.misc
Markable
p776
(igamelib.data
SaveData
p777
(dp778
g6
(dp779
S'instance'
p780
(dp781
g10
I01
sg11
F0
sg12
F1
sg13
I10
sg14
g58
sg16
I01
sg17
(igamelib.math2d
Vector2
p782
(dp783
S'y'
F480
sS'x'
F288
sbsssbba(igamelib.misc
Beauty
p784
(igamelib.data
SaveData
p785
(dp786
g6
(dp787
S'instance'
p788
(dp789
g10
I01
sg11
F318.35298482811322
sg12
F1.3705684010559165
sg13
I18
sg14
g15
sg16
I01
sg17
(igamelib.math2d
Vector2
p790
(dp791
S'y'
F37.627118644067792
sS'x'
F228.81355932203388
sbsssbba(igamelib.misc
Beauty
p792
(igamelib.data
SaveData
p793
(dp794
g6
(dp795
S'instance'
p796
(dp797
g10
I01
sg11
F109.15154729335197
sg12
F1.5319761530324341
sg13
I18
sg14
g15
sg16
I01
sg17
(igamelib.math2d
Vector2
p798
(dp799
S'y'
F305.08474576271186
sS'x'
F74.237288135593218
sbsssbba(igamelib.towers
Tank
p800
(igamelib.data
SaveData
p801
(dp802
g6
(dp803
S'instance'
p804
(dp805
g10
I01
sg17
(igamelib.math2d
Vector2
p806
(dp807
S'y'
F288
sS'x'
F416
sbsg11
F-607.5
sg16
I01
sssbba(igamelib.towers
Bunker
p808
(igamelib.data
SaveData
p809
(dp810
g6
(dp811
S'instance'
p812
(dp813
g10
I01
sg17
(igamelib.math2d
Vector2
p814
(dp815
S'y'
F480
sS'x'
F416
sbsg11
F-540
sg16
I01
sssbba(igamelib.misc
Beauty
p816
(igamelib.data
SaveData
p817
(dp818
g6
(dp819
S'instance'
p820
(dp821
g10
I01
sg11
F124.34897118255326
sg12
F1.106538496908535
sg13
I18
sg14
g15
sg16
I01
sg17
(igamelib.math2d
Vector2
p822
(dp823
S'y'
F56.949152542372879
sS'x'
F927.45762711864404
sbsssbba(igamelib.misc
Beauty
p824
(igamelib.data
SaveData
p825
(dp826
g6
(dp827
S'instance'
p828
(dp829
g10
I01
sg11
F198.84531071142678
sg12
F1.2310904516623224
sg13
I18
sg14
g15
sg16
I01
sg17
(igamelib.math2d
Vector2
p830
(dp831
S'y'
F256.27118644067798
sS'x'
F22.372881355932201
sbsssbba(igamelib.misc
Beauty
p832
(igamelib.data
SaveData
p833
(dp834
g6
(dp835
S'instance'
p836
(dp837
g10
I01
sg11
F294.57213094385065
sg12
F1.7968952197071233
sg13
I18
sg14
g15
sg16
I01
sg17
(igamelib.math2d
Vector2
p838
(dp839
S'y'
F28.474576271186439
sS'x'
F324.40677966101691
sbsssbba(igamelib.misc
Beauty
p840
(igamelib.data
SaveData
p841
(dp842
g6
(dp843
S'instance'
p844
(dp845
g10
I01
sg11
F264.87912230513234
sg12
F1.8242815257495664
sg13
I18
sg14
g15
sg16
I01
sg17
(igamelib.math2d
Vector2
p846
(dp847
S'y'
F481.01694915254234
sS'x'
F72.20338983050847
sbsssbba(igamelib.misc
Markable
p848
(igamelib.data
SaveData
p849
(dp850
g6
(dp851
S'instance'
p852
(dp853
g10
I01
sg11
F-450
sg12
F1
sg13
I10
sg14
g58
sg16
I01
sg17
(igamelib.math2d
Vector2
p854
(dp855
S'y'
F224
sS'x'
F480
sbsssbba(igamelib.misc
Markable
p856
(igamelib.data
SaveData
p857
(dp858
g6
(dp859
S'instance'
p860
(dp861
g10
I01
sg11
F-450
sg12
F1
sg13
I10
sg14
g58
sg16
I01
sg17
(igamelib.math2d
Vector2
p862
(dp863
S'y'
F224
sS'x'
F416
sbsssbba(igamelib.misc
Beauty
p864
(igamelib.data
SaveData
p865
(dp866
g6
(dp867
S'instance'
p868
(dp869
g10
I01
sg11
F22.756115236601421
sg12
F0.89106787425854628
sg13
I18
sg14
g15
sg16
I01
sg17
(igamelib.math2d
Vector2
p870
(dp871
S'y'
F169.83050847457628
sS'x'
F854.23728813559319
sbsssbba(igamelib.misc
Beauty
p872
(igamelib.data
SaveData
p873
(dp874
g6
(dp875
S'instance'
p876
(dp877
g10
I01
sg11
F175.08056359271885
sg12
F0.92455116260803272
sg13
I18
sg14
g15
sg16
I01
sg17
(igamelib.math2d
Vector2
p878
(dp879
S'y'
F445.42372881355931
sS'x'
F19.322033898305083
sbsssbbatRp880
.