c__builtin__
set
p1
((lp2
(igamelib.misc
Beauty
p3
(igamelib.data
SaveData
p4
(dp5
S'classes'
p6
(dp7
S'instance'
p8
(dp9
S'__visible'
p10
I01
sS'_rotation'
p11
F28.93832433713456
sS'_Scale'
p12
F1.8623165988410857
sS'_z_index'
p13
I18
sS'_TextureName'
p14
S'deco_tree.png'
p15
sS'__renderCallback'
p16
I01
sS'_position'
p17
(igamelib.math2d
Vector2
p18
(dp19
S'y'
F609.15254237288138
sS'x'
F1078.9830508474577
sbsssbba(igamelib.misc
Beauty
p20
(igamelib.data
SaveData
p21
(dp22
g6
(dp23
S'instance'
p24
(dp25
g10
I01
sg11
F268.65442795316989
sg12
F1.6317950145983715
sg13
I18
sg14
g15
sg16
I01
sg17
(igamelib.math2d
Vector2
p26
(dp27
S'y'
F86.440677966101688
sS'x'
F62.03389830508474
sbsssbba(igamelib.misc
Beauty
p28
(igamelib.data
SaveData
p29
(dp30
g6
(dp31
S'instance'
p32
(dp33
g10
I01
sg11
F271.68667682213862
sg12
F0.75457748259556989
sg13
I18
sg14
g15
sg16
I01
sg17
(igamelib.math2d
Vector2
p34
(dp35
S'y'
F673.22033898305085
sS'x'
F866.4406779661017
sbsssbba(igamelib.misc
Beauty
p36
(igamelib.data
SaveData
p37
(dp38
g6
(dp39
S'instance'
p40
(dp41
g10
I01
sg11
F85.219458712196442
sg12
F1.502792039782759
sg13
I18
sg14
g15
sg16
I01
sg17
(igamelib.math2d
Vector2
p42
(dp43
S'y'
F624.40677966101691
sS'x'
F134.23728813559322
sbsssbba(igamelib.misc
Beauty
p44
(igamelib.data
SaveData
p45
(dp46
g6
(dp47
S'instance'
p48
(dp49
g10
I01
sg11
F297.89926290166261
sg12
F1.2530190686181419
sg13
I18
sg14
g15
sg16
I01
sg17
(igamelib.math2d
Vector2
p50
(dp51
S'y'
F438.30508474576271
sS'x'
F27.457627118644066
sbsssbba(igamelib.misc
Beauty
p52
(igamelib.data
SaveData
p53
(dp54
g6
(dp55
S'instance'
p56
(dp57
g10
I01
sg11
F159.79667478571926
sg12
F0.58900224482324848
sg13
I18
sg14
g15
sg16
I01
sg17
(igamelib.math2d
Vector2
p58
(dp59
S'y'
F314.23728813559319
sS'x'
F46.779661016949149
sbsssbba(igamelib.misc
Beauty
p60
(igamelib.data
SaveData
p61
(dp62
g6
(dp63
S'instance'
p64
(dp65
g10
I01
sg11
F111.45226361062117
sg12
F1.8706207610974459
sg13
I18
sg14
g15
sg16
I01
sg17
(igamelib.math2d
Vector2
p66
(dp67
S'y'
F651.86440677966095
sS'x'
F634.57627118644064
sbsssbba(igamelib.misc
Markable
p68
(igamelib.data
SaveData
p69
(dp70
g6
(dp71
S'instance'
p72
(dp73
g10
I01
sg11
F-270
sg12
F1
sg13
I10
sg14
S'path_straight.png'
p74
sg16
I01
sg17
(igamelib.math2d
Vector2
p75
(dp76
S'y'
F416
sS'x'
F480
sbsssbba(igamelib.misc
Beauty
p77
(igamelib.data
SaveData
p78
(dp79
g6
(dp80
S'instance'
p81
(dp82
g10
I01
sg11
F96.867492623543583
sg12
F0.63309388363338248
sg13
I18
sg14
g15
sg16
I01
sg17
(igamelib.math2d
Vector2
p83
(dp84
S'y'
F42.711864406779661
sS'x'
F261.35593220338984
sbsssbba(igamelib.misc
Beauty
p85
(igamelib.data
SaveData
p86
(dp87
g6
(dp88
S'instance'
p89
(dp90
g10
I01
sg11
F25.196362314961227
sg12
F1.2770930862063834
sg13
I18
sg14
g15
sg16
I01
sg17
(igamelib.math2d
Vector2
p91
(dp92
S'y'
F234.91525423728814
sS'x'
F98.644067796610159
sbsssbba(igamelib.misc
Beauty
p93
(igamelib.data
SaveData
p94
(dp95
g6
(dp96
S'instance'
p97
(dp98
g10
I01
sg11
F304.62673799920333
sg12
F0.50880845698967936
sg13
I18
sg14
g15
sg16
I01
sg17
(igamelib.math2d
Vector2
p99
(dp100
S'y'
F177.96610169491524
sS'x'
F46.779661016949149
sbsssbba(igamelib.misc
Beauty
p101
(igamelib.data
SaveData
p102
(dp103
g6
(dp104
S'instance'
p105
(dp106
g10
I01
sg11
F283.23132484995995
sg12
F0.76198117475875948
sg13
I18
sg14
g15
sg16
I01
sg17
(igamelib.math2d
Vector2
p107
(dp108
S'y'
F54.915254237288131
sS'x'
F441.35593220338978
sbsssbba(igamelib.misc
Beauty
p109
(igamelib.data
SaveData
p110
(dp111
g6
(dp112
S'instance'
p113
(dp114
g10
I01
sg11
F124.1419719056269
sg12
F1.1381752475635327
sg13
I18
sg14
g15
sg16
I01
sg17
(igamelib.math2d
Vector2
p115
(dp116
S'y'
F514.57627118644064
sS'x'
F910.16949152542372
sbsssbba(igamelib.misc
Beauty
p117
(igamelib.data
SaveData
p118
(dp119
g6
(dp120
S'instance'
p121
(dp122
g10
I01
sg11
F74.696007822197345
sg12
F1.5689133642818094
sg13
I18
sg14
g15
sg16
I01
sg17
(igamelib.math2d
Vector2
p123
(dp124
S'y'
F392.5423728813559
sS'x'
F72.20338983050847
sbsssbba(igamelib.misc
Beauty
p125
(igamelib.data
SaveData
p126
(dp127
g6
(dp128
S'instance'
p129
(dp130
g10
I01
sg11
F335.0112313718073
sg12
F0.80839901748073439
sg13
I18
sg14
g15
sg16
I01
sg17
(igamelib.math2d
Vector2
p131
(dp132
S'y'
F41.694915254237287
sS'x'
F368.13559322033899
sbsssbba(igamelib.misc
Beauty
p133
(igamelib.data
SaveData
p134
(dp135
g6
(dp136
S'instance'
p137
(dp138
g10
I01
sg11
F201.76214122231784
sg12
F1.9114602687573206
sg13
I18
sg14
g15
sg16
I01
sg17
(igamelib.math2d
Vector2
p139
(dp140
S'y'
F672.2033898305084
sS'x'
F145.42372881355931
sbsssbba(igamelib.misc
Beauty
p141
(igamelib.data
SaveData
p142
(dp143
g6
(dp144
S'instance'
p145
(dp146
g10
I01
sg11
F294.75647826252555
sg12
F1.2433661359685715
sg13
I18
sg14
g15
sg16
I01
sg17
(igamelib.math2d
Vector2
p147
(dp148
S'y'
F628.47457627118638
sS'x'
F147.45762711864407
sbsssbba(igamelib.misc
Beauty
p149
(igamelib.data
SaveData
p150
(dp151
g6
(dp152
S'instance'
p153
(dp154
g10
I01
sg11
F264.09219665220854
sg12
F1.9375582762587238
sg13
I18
sg14
g15
sg16
I01
sg17
(igamelib.math2d
Vector2
p155
(dp156
S'y'
F509.49152542372877
sS'x'
F1014.9152542372881
sbsssbba(igamelib.misc
Beauty
p157
(igamelib.data
SaveData
p158
(dp159
g6
(dp160
S'instance'
p161
(dp162
g10
I01
sg11
F107.85630214714118
sg12
F0.89727884733916596
sg13
I18
sg14
g15
sg16
I01
sg17
(igamelib.math2d
Vector2
p163
(dp164
S'y'
F90.508474576271183
sS'x'
F776.94915254237287
sbsssbba(igamelib.misc
Beauty
p165
(igamelib.data
SaveData
p166
(dp167
g6
(dp168
S'instance'
p169
(dp170
g10
I01
sg11
F129.50659311434617
sg12
F0.85806718373147695
sg13
I18
sg14
g15
sg16
I01
sg17
(igamelib.math2d
Vector2
p171
(dp172
S'y'
F81.355932203389827
sS'x'
F574.57627118644064
sbsssbba(igamelib.misc
Beauty
p173
(igamelib.data
SaveData
p174
(dp175
g6
(dp176
S'instance'
p177
(dp178
g10
I01
sg11
F332.74207136060193
sg12
F1.1196862259339688
sg13
I18
sg14
g15
sg16
I01
sg17
(igamelib.math2d
Vector2
p179
(dp180
S'y'
F666.10169491525426
sS'x'
F173.89830508474574
sbsssbba(igamelib.misc
Beauty
p181
(igamelib.data
SaveData
p182
(dp183
g6
(dp184
S'instance'
p185
(dp186
g10
I01
sg11
F43.57490003171317
sg12
F0.81757943396422483
sg13
I18
sg14
g15
sg16
I01
sg17
(igamelib.math2d
Vector2
p187
(dp188
S'y'
F306.1016949152542
sS'x'
F49.83050847457627
sbsssbba(igamelib.misc
Beauty
p189
(igamelib.data
SaveData
p190
(dp191
g6
(dp192
S'instance'
p193
(dp194
g10
I01
sg11
F49.687611984539494
sg12
F1.0860160624301118
sg13
I18
sg14
g15
sg16
I01
sg17
(igamelib.math2d
Vector2
p195
(dp196
S'y'
F650.84745762711862
sS'x'
F559.32203389830511
sbsssbba(igamelib.misc
Beauty
p197
(igamelib.data
SaveData
p198
(dp199
g6
(dp200
S'instance'
p201
(dp202
g10
I01
sg11
F248.22132745405551
sg12
F1.4667915808404683
sg13
I18
sg14
g15
sg16
I01
sg17
(igamelib.math2d
Vector2
p203
(dp204
S'y'
F248.13559322033896
sS'x'
F45.762711864406775
sbsssbba(igamelib.misc
Beauty
p205
(igamelib.data
SaveData
p206
(dp207
g6
(dp208
S'instance'
p209
(dp210
g10
I01
sg11
F37.173970743963295
sg12
F1.01911054210937
sg13
I18
sg14
g15
sg16
I01
sg17
(igamelib.math2d
Vector2
p211
(dp212
S'y'
F42.711864406779661
sS'x'
F272.5423728813559
sbsssbba(igamelib.misc
Beauty
p213
(igamelib.data
SaveData
p214
(dp215
g6
(dp216
S'instance'
p217
(dp218
g10
I01
sg11
F281.36407846983133
sg12
F1.9471689957369669
sg13
I18
sg14
g15
sg16
I01
sg17
(igamelib.math2d
Vector2
p219
(dp220
S'y'
F225.76271186440678
sS'x'
F156.61016949152543
sbsssbba(igamelib.misc
Beauty
p221
(igamelib.data
SaveData
p222
(dp223
g6
(dp224
S'instance'
p225
(dp226
g10
I01
sg11
F157.290903704583
sg12
F0.57087950172657986
sg13
I18
sg14
g15
sg16
I01
sg17
(igamelib.math2d
Vector2
p227
(dp228
S'y'
F73.220338983050851
sS'x'
F368.13559322033899
sbsssbba(igamelib.misc
Beauty
p229
(igamelib.data
SaveData
p230
(dp231
g6
(dp232
S'instance'
p233
(dp234
g10
I01
sg11
F347.05868569696395
sg12
F1.5574041863293842
sg13
I18
sg14
g15
sg16
I01
sg17
(igamelib.math2d
Vector2
p235
(dp236
S'y'
F22.372881355932201
sS'x'
F925.42372881355925
sbsssbba(igamelib.misc
Beauty
p237
(igamelib.data
SaveData
p238
(dp239
g6
(dp240
S'instance'
p241
(dp242
g10
I01
sg11
F221.7768532094029
sg12
F0.68159944799877326
sg13
I18
sg14
g15
sg16
I01
sg17
(igamelib.math2d
Vector2
p243
(dp244
S'y'
F694.57627118644064
sS'x'
F243.0508474576271
sbsssbba(igamelib.misc
Markable
p245
(igamelib.data
SaveData
p246
(dp247
g6
(dp248
S'instance'
p249
(dp250
g10
I01
sg11
F-360
sg12
F1
sg13
I10
sg14
g74
sg16
I01
sg17
(igamelib.math2d
Vector2
p251
(dp252
S'y'
F288
sS'x'
F544
sbsssbba(igamelib.misc
Beauty
p253
(igamelib.data
SaveData
p254
(dp255
g6
(dp256
S'instance'
p257
(dp258
g10
I01
sg11
F43.032924706328885
sg12
F1.4560687672020867
sg13
I18
sg14
g15
sg16
I01
sg17
(igamelib.math2d
Vector2
p259
(dp260
S'y'
F500.33898305084745
sS'x'
F1007.7966101694915
sbsssbba(igamelib.misc
Beauty
p261
(igamelib.data
SaveData
p262
(dp263
g6
(dp264
S'instance'
p265
(dp266
g10
I01
sg11
F336.04067364421508
sg12
F1.5386948910453349
sg13
I18
sg14
g15
sg16
I01
sg17
(igamelib.math2d
Vector2
p267
(dp268
S'y'
F611.18644067796606
sS'x'
F94.576271186440678
sbsssbba(igamelib.misc
Beauty
p269
(igamelib.data
SaveData
p270
(dp271
g6
(dp272
S'instance'
p273
(dp274
g10
I01
sg11
F262.07956147986863
sg12
F1.4375621612754681
sg13
I18
sg14
g15
sg16
I01
sg17
(igamelib.math2d
Vector2
p275
(dp276
S'y'
F35.593220338983052
sS'x'
F338.64406779661016
sbsssbba(igamelib.misc
Beauty
p277
(igamelib.data
SaveData
p278
(dp279
g6
(dp280
S'instance'
p281
(dp282
g10
I01
sg11
F265.68270951073004
sg12
F0.59313096309108582
sg13
I18
sg14
g15
sg16
I01
sg17
(igamelib.math2d
Vector2
p283
(dp284
S'y'
F60
sS'x'
F449.49152542372877
sbsssbba(igamelib.misc
Beauty
p285
(igamelib.data
SaveData
p286
(dp287
g6
(dp288
S'instance'
p289
(dp290
g10
I01
sg11
F209.54612156534088
sg12
F0.95266609852306772
sg13
I18
sg14
g15
sg16
I01
sg17
(igamelib.math2d
Vector2
p291
(dp292
S'y'
F129.15254237288136
sS'x'
F250.16949152542372
sbsssbba(igamelib.misc
Beauty
p293
(igamelib.data
SaveData
p294
(dp295
g6
(dp296
S'instance'
p297
(dp298
g10
I01
sg11
F57.737936175653147
sg12
F0.51254307887624018
sg13
I18
sg14
g15
sg16
I01
sg17
(igamelib.math2d
Vector2
p299
(dp300
S'y'
F83.389830508474574
sS'x'
F623.38983050847457
sbsssbba(igamelib.misc
Beauty
p301
(igamelib.data
SaveData
p302
(dp303
g6
(dp304
S'instance'
p305
(dp306
g10
I01
sg11
F269.04869075800741
sg12
F1.2561976914901642
sg13
I18
sg14
g15
sg16
I01
sg17
(igamelib.math2d
Vector2
p307
(dp308
S'y'
F649.83050847457628
sS'x'
F388.47457627118644
sbsssbba(igamelib.misc
Beauty
p309
(igamelib.data
SaveData
p310
(dp311
g6
(dp312
S'instance'
p313
(dp314
g10
I01
sg11
F96.073126879678426
sg12
F1.9435326781170326
sg13
I18
sg14
g15
sg16
I01
sg17
(igamelib.math2d
Vector2
p315
(dp316
S'y'
F98.644067796610159
sS'x'
F309.15254237288133
sbsssbba(igamelib.misc
Markable
p317
(igamelib.data
SaveData
p318
(dp319
g6
(dp320
S'instance'
p321
(dp322
g10
I01
sg11
F-270
sg12
F1
sg13
I10
sg14
S'path_corner.png'
p323
sg16
I01
sg17
(igamelib.math2d
Vector2
p324
(dp325
S'y'
F416
sS'x'
F544
sbsssbba(igamelib.misc
Beauty
p326
(igamelib.data
SaveData
p327
(dp328
g6
(dp329
S'instance'
p330
(dp331
g10
I01
sg11
F339.74726925456963
sg12
F0.83262144774111935
sg13
I18
sg14
g15
sg16
I01
sg17
(igamelib.math2d
Vector2
p332
(dp333
S'y'
F220.67796610169489
sS'x'
F96.610169491525426
sbsssbba(igamelib.misc
Beauty
p334
(igamelib.data
SaveData
p335
(dp336
g6
(dp337
S'instance'
p338
(dp339
g10
I01
sg11
F124.43375131481021
sg12
F0.79734336154360397
sg13
I18
sg14
g15
sg16
I01
sg17
(igamelib.math2d
Vector2
p340
(dp341
S'y'
F674.23728813559319
sS'x'
F743.38983050847457
sbsssbba(igamelib.misc
Beauty
p342
(igamelib.data
SaveData
p343
(dp344
g6
(dp345
S'instance'
p346
(dp347
g10
I01
sg11
F269.69153177428001
sg12
F0.65242188537301127
sg13
I18
sg14
g15
sg16
I01
sg17
(igamelib.math2d
Vector2
p348
(dp349
S'y'
F44.745762711864401
sS'x'
F445.42372881355931
sbsssbba(igamelib.misc
Beauty
p350
(igamelib.data
SaveData
p351
(dp352
g6
(dp353
S'instance'
p354
(dp355
g10
I01
sg11
F268.63885373603483
sg12
F0.51199162834657119
sg13
I18
sg14
g15
sg16
I01
sg17
(igamelib.math2d
Vector2
p356
(dp357
S'y'
F154.57627118644066
sS'x'
F982.37288135593212
sbsssbba(igamelib.misc
Markable
p358
(igamelib.data
SaveData
p359
(dp360
g6
(dp361
S'instance'
p362
(dp363
g10
I01
sg11
F-360
sg12
F1
sg13
I10
sg14
g74
sg16
I01
sg17
(igamelib.math2d
Vector2
p364
(dp365
S'y'
F352
sS'x'
F544
sbsssbba(igamelib.misc
Beauty
p366
(igamelib.data
SaveData
p367
(dp368
g6
(dp369
S'instance'
p370
(dp371
g10
I01
sg11
F134.23628153794451
sg12
F0.92377898160962402
sg13
I18
sg14
g15
sg16
I01
sg17
(igamelib.math2d
Vector2
p372
(dp373
S'y'
F596.94915254237287
sS'x'
F187.11864406779659
sbsssbba(igamelib.buildings
HQ
p374
(igamelib.data
SaveData
p375
(dp376
g6
(dp377
S'instance'
p378
(dp379
g10
I01
sg17
(igamelib.math2d
Vector2
p380
(dp381
S'y'
F416
sS'x'
F288
sbsg11
F-90
sg16
I01
sssbba(igamelib.buildings
FastFood
p382
(igamelib.data
SaveData
p383
(dp384
g6
(dp385
S'instance'
p386
(dp387
g10
I01
sS'path'
p388
(igamelib.pathfinding
Path
p389
(igamelib.data
SaveData
p390
(dp391
g6
(dp392
S'instance'
p393
(dp394
g10
I01
sS'_Start'
p395
(igamelib.pathfinding
Waypoint
p396
(igamelib.data
SaveData
p397
(dp398
g6
(dp399
S'instance'
p400
(dp401
S'_previous'
p402
NsS'_next'
p403
(igamelib.pathfinding
Waypoint
p404
(igamelib.data
SaveData
p405
(dp406
g6
(dp407
S'instance'
p408
(dp409
g402
g396
sg403
(igamelib.pathfinding
Waypoint
p410
(igamelib.data
SaveData
p411
(dp412
g6
(dp413
S'instance'
p414
(dp415
g402
g404
sg403
Nsg17
(igamelib.math2d
Vector2
p416
(dp417
S'y'
F417
sS'x'
F330
sbsssbbsg17
(igamelib.math2d
Vector2
p418
(dp419
S'y'
F417
sS'x'
F542
sbsssbbsg17
(igamelib.math2d
Vector2
p420
(dp421
S'y'
F332
sS'x'
F542
sbsssbbsg16
I00
sssbbsg17
(igamelib.math2d
Vector2
p422
(dp423
S'y'
F288
sS'x'
F544
sbsg11
F-270
sg16
I01
sssbba(igamelib.misc
Beauty
p424
(igamelib.data
SaveData
p425
(dp426
g6
(dp427
S'instance'
p428
(dp429
g10
I01
sg11
F264.78359212708114
sg12
F0.99813769775222405
sg13
I18
sg14
g15
sg16
I01
sg17
(igamelib.math2d
Vector2
p430
(dp431
S'y'
F660
sS'x'
F272.5423728813559
sbsssbba(igamelib.misc
Beauty
p432
(igamelib.data
SaveData
p433
(dp434
g6
(dp435
S'instance'
p436
(dp437
g10
I01
sg11
F177.54578556078837
sg12
F1.4449519158715358
sg13
I18
sg14
g15
sg16
I01
sg17
(igamelib.math2d
Vector2
p438
(dp439
S'y'
F258.30508474576271
sS'x'
F897.96610169491521
sbsssbba(igamelib.misc
Beauty
p440
(igamelib.data
SaveData
p441
(dp442
g6
(dp443
S'instance'
p444
(dp445
g10
I01
sg11
F355.40268956362303
sg12
F0.99346664544764041
sg13
I18
sg14
g15
sg16
I01
sg17
(igamelib.math2d
Vector2
p446
(dp447
S'y'
F190.16949152542372
sS'x'
F949.83050847457628
sbsssbba(igamelib.misc
Beauty
p448
(igamelib.data
SaveData
p449
(dp450
g6
(dp451
S'instance'
p452
(dp453
g10
I01
sg11
F212.2079566929792
sg12
F1.5254058366452903
sg13
I18
sg14
g15
sg16
I01
sg17
(igamelib.math2d
Vector2
p454
(dp455
S'y'
F674.23728813559319
sS'x'
F367.11864406779659
sbsssbba(igamelib.misc
Beauty
p456
(igamelib.data
SaveData
p457
(dp458
g6
(dp459
S'instance'
p460
(dp461
g10
I01
sg11
F23.65911289235698
sg12
F1.3803287564355413
sg13
I18
sg14
g15
sg16
I01
sg17
(igamelib.math2d
Vector2
p462
(dp463
S'y'
F610.16949152542372
sS'x'
F675.25423728813553
sbsssbba(igamelib.misc
Beauty
p464
(igamelib.data
SaveData
p465
(dp466
g6
(dp467
S'instance'
p468
(dp469
g10
I01
sg11
F88.826481396631934
sg12
F1.0613374570643339
sg13
I18
sg14
g15
sg16
I01
sg17
(igamelib.math2d
Vector2
p470
(dp471
S'y'
F112.88135593220339
sS'x'
F118.98305084745762
sbsssbba(igamelib.misc
Beauty
p472
(igamelib.data
SaveData
p473
(dp474
g6
(dp475
S'instance'
p476
(dp477
g10
I01
sg11
F177.83338258609527
sg12
F0.91952386758328908
sg13
I18
sg14
g15
sg16
I01
sg17
(igamelib.math2d
Vector2
p478
(dp479
S'y'
F80.33898305084746
sS'x'
F425.08474576271186
sbsssbba(igamelib.misc
Beauty
p480
(igamelib.data
SaveData
p481
(dp482
g6
(dp483
S'instance'
p484
(dp485
g10
I01
sg11
F71.191033957975748
sg12
F1.0643137601654005
sg13
I18
sg14
g15
sg16
I01
sg17
(igamelib.math2d
Vector2
p486
(dp487
S'y'
F22.372881355932201
sS'x'
F256.27118644067798
sbsssbba(igamelib.misc
Beauty
p488
(igamelib.data
SaveData
p489
(dp490
g6
(dp491
S'instance'
p492
(dp493
g10
I01
sg11
F330.22669499185014
sg12
F0.56484521046011382
sg13
I18
sg14
g15
sg16
I01
sg17
(igamelib.math2d
Vector2
p494
(dp495
S'y'
F684.40677966101691
sS'x'
F305.08474576271186
sbsssbba(igamelib.misc
Markable
p496
(igamelib.data
SaveData
p497
(dp498
g6
(dp499
S'instance'
p500
(dp501
g10
I01
sg11
F-270
sg12
F1
sg13
I10
sg14
g74
sg16
I01
sg17
(igamelib.math2d
Vector2
p502
(dp503
S'y'
F416
sS'x'
F352
sbsssbba(igamelib.misc
Beauty
p504
(igamelib.data
SaveData
p505
(dp506
g6
(dp507
S'instance'
p508
(dp509
g10
I01
sg11
F48.097048107888455
sg12
F1.1290140096928225
sg13
I18
sg14
g15
sg16
I01
sg17
(igamelib.math2d
Vector2
p510
(dp511
S'y'
F275.59322033898303
sS'x'
F137.28813559322035
sbsssbba(igamelib.misc
Beauty
p512
(igamelib.data
SaveData
p513
(dp514
g6
(dp515
S'instance'
p516
(dp517
g10
I01
sg11
F16.500253441292934
sg12
F0.97472031212758803
sg13
I18
sg14
g15
sg16
I01
sg17
(igamelib.math2d
Vector2
p518
(dp519
S'y'
F206.44067796610167
sS'x'
F66.101694915254228
sbsssbba(igamelib.misc
Beauty
p520
(igamelib.data
SaveData
p521
(dp522
g6
(dp523
S'instance'
p524
(dp525
g10
I01
sg11
F149.79224029959633
sg12
F0.45910674102291654
sg13
I18
sg14
g15
sg16
I01
sg17
(igamelib.math2d
Vector2
p526
(dp527
S'y'
F631.52542372881351
sS'x'
F572.54237288135596
sbsssbba(igamelib.misc
Beauty
p528
(igamelib.data
SaveData
p529
(dp530
g6
(dp531
S'instance'
p532
(dp533
g10
I01
sg11
F321.29022160280533
sg12
F1.492562538747324
sg13
I18
sg14
g15
sg16
I01
sg17
(igamelib.math2d
Vector2
p534
(dp535
S'y'
F392.5423728813559
sS'x'
F873.5593220338983
sbsssbba(igamelib.misc
Beauty
p536
(igamelib.data
SaveData
p537
(dp538
g6
(dp539
S'instance'
p540
(dp541
g10
I01
sg11
F317.17321814098244
sg12
F0.83489795931489552
sg13
I18
sg14
g15
sg16
I01
sg17
(igamelib.math2d
Vector2
p542
(dp543
S'y'
F82.372881355932194
sS'x'
F521.69491525423723
sbsssbba(igamelib.misc
Beauty
p544
(igamelib.data
SaveData
p545
(dp546
g6
(dp547
S'instance'
p548
(dp549
g10
I01
sg11
F200.3373864628567
sg12
F1.0293256102836859
sg13
I18
sg14
g15
sg16
I01
sg17
(igamelib.math2d
Vector2
p550
(dp551
S'y'
F497.28813559322032
sS'x'
F85.423728813559322
sbsssbba(igamelib.misc
Beauty
p552
(igamelib.data
SaveData
p553
(dp554
g6
(dp555
S'instance'
p556
(dp557
g10
I01
sg11
F149.84413235071037
sg12
F1.6101303989969147
sg13
I18
sg14
g15
sg16
I01
sg17
(igamelib.math2d
Vector2
p558
(dp559
S'y'
F85.423728813559322
sS'x'
F129.15254237288136
sbsssbba(igamelib.misc
Beauty
p560
(igamelib.data
SaveData
p561
(dp562
g6
(dp563
S'instance'
p564
(dp565
g10
I01
sg11
F70.017551439529825
sg12
F0.51777875156733999
sg13
I18
sg14
g15
sg16
I01
sg17
(igamelib.math2d
Vector2
p566
(dp567
S'y'
F548.13559322033893
sS'x'
F98.644067796610159
sbsssbba(igamelib.misc
Beauty
p568
(igamelib.data
SaveData
p569
(dp570
g6
(dp571
S'instance'
p572
(dp573
g10
I01
sg11
F29.543009209881674
sg12
F0.72306465983284407
sg13
I18
sg14
g15
sg16
I01
sg17
(igamelib.math2d
Vector2
p574
(dp575
S'y'
F51.864406779661017
sS'x'
F409.83050847457628
sbsssbba(igamelib.misc
Beauty
p576
(igamelib.data
SaveData
p577
(dp578
g6
(dp579
S'instance'
p580
(dp581
g10
I01
sg11
F43.837929350833463
sg12
F1.3279624997028967
sg13
I18
sg14
g15
sg16
I01
sg17
(igamelib.math2d
Vector2
p582
(dp583
S'y'
F30.508474576271183
sS'x'
F976.27118644067787
sbsssbba(igamelib.misc
Beauty
p584
(igamelib.data
SaveData
p585
(dp586
g6
(dp587
S'instance'
p588
(dp589
g10
I01
sg11
F233.10056326251319
sg12
F1.0357029137607783
sg13
I18
sg14
g15
sg16
I01
sg17
(igamelib.math2d
Vector2
p590
(dp591
S'y'
F58.983050847457626
sS'x'
F526.77966101694915
sbsssbba(igamelib.misc
Beauty
p592
(igamelib.data
SaveData
p593
(dp594
g6
(dp595
S'instance'
p596
(dp597
g10
I01
sg11
F226.37744495997373
sg12
F1.4122399466577571
sg13
I18
sg14
g15
sg16
I01
sg17
(igamelib.math2d
Vector2
p598
(dp599
S'y'
F650.84745762711862
sS'x'
F858.30508474576266
sbsssbba(igamelib.misc
Beauty
p600
(igamelib.data
SaveData
p601
(dp602
g6
(dp603
S'instance'
p604
(dp605
g10
I01
sg11
F175.13192235133582
sg12
F1.1512466126329355
sg13
I18
sg14
g15
sg16
I01
sg17
(igamelib.math2d
Vector2
p606
(dp607
S'y'
F322.37288135593218
sS'x'
F22.372881355932201
sbsssbba(igamelib.misc
Beauty
p608
(igamelib.data
SaveData
p609
(dp610
g6
(dp611
S'instance'
p612
(dp613
g10
I01
sg11
F217.73164918740315
sg12
F0.8812653230122609
sg13
I18
sg14
g15
sg16
I01
sg17
(igamelib.math2d
Vector2
p614
(dp615
S'y'
F43.728813559322035
sS'x'
F490.16949152542372
sbsssbba(igamelib.misc
Beauty
p616
(igamelib.data
SaveData
p617
(dp618
g6
(dp619
S'instance'
p620
(dp621
g10
I01
sg11
F202.70411552760871
sg12
F1.4834981867152142
sg13
I18
sg14
g15
sg16
I01
sg17
(igamelib.math2d
Vector2
p622
(dp623
S'y'
F582.71186440677968
sS'x'
F51.864406779661017
sbsssbba(igamelib.misc
Beauty
p624
(igamelib.data
SaveData
p625
(dp626
g6
(dp627
S'instance'
p628
(dp629
g10
I01
sg11
F276.65848215296177
sg12
F1.5347810360173215
sg13
I18
sg14
g15
sg16
I01
sg17
(igamelib.math2d
Vector2
p630
(dp631
S'y'
F215.59322033898303
sS'x'
F97.627118644067792
sbsssbba(igamelib.misc
Beauty
p632
(igamelib.data
SaveData
p633
(dp634
g6
(dp635
S'instance'
p636
(dp637
g10
I01
sg11
F127.19498467053053
sg12
F0.87048541317740569
sg13
I18
sg14
g15
sg16
I01
sg17
(igamelib.math2d
Vector2
p638
(dp639
S'y'
F629.49152542372883
sS'x'
F1041.3559322033898
sbsssbba(igamelib.misc
Beauty
p640
(igamelib.data
SaveData
p641
(dp642
g6
(dp643
S'instance'
p644
(dp645
g10
I01
sg11
F74.167943441566663
sg12
F1.7305344406750263
sg13
I18
sg14
g15
sg16
I01
sg17
(igamelib.math2d
Vector2
p646
(dp647
S'y'
F667.11864406779659
sS'x'
F23.389830508474574
sbsssbba(igamelib.misc
Beauty
p648
(igamelib.data
SaveData
p649
(dp650
g6
(dp651
S'instance'
p652
(dp653
g10
I01
sg11
F97.405888589748614
sg12
F0.98482572802575241
sg13
I18
sg14
g15
sg16
I01
sg17
(igamelib.math2d
Vector2
p654
(dp655
S'y'
F60
sS'x'
F615.25423728813553
sbsssbba(igamelib.misc
Beauty
p656
(igamelib.data
SaveData
p657
(dp658
g6
(dp659
S'instance'
p660
(dp661
g10
I01
sg11
F250.42112893624085
sg12
F0.90363591238006213
sg13
I18
sg14
g15
sg16
I01
sg17
(igamelib.math2d
Vector2
p662
(dp663
S'y'
F495.25423728813558
sS'x'
F19.322033898305083
sbsssbba(igamelib.misc
Beauty
p664
(igamelib.data
SaveData
p665
(dp666
g6
(dp667
S'instance'
p668
(dp669
g10
I01
sg11
F209.38192587219436
sg12
F0.86098684186662733
sg13
I18
sg14
g15
sg16
I01
sg17
(igamelib.math2d
Vector2
p670
(dp671
S'y'
F219.66101694915253
sS'x'
F950.84745762711862
sbsssbba(igamelib.misc
Beauty
p672
(igamelib.data
SaveData
p673
(dp674
g6
(dp675
S'instance'
p676
(dp677
g10
I01
sg11
F346.60947462056112
sg12
F0.45124510003459428
sg13
I18
sg14
g15
sg16
I01
sg17
(igamelib.math2d
Vector2
p678
(dp679
S'y'
F670.16949152542372
sS'x'
F169.83050847457628
sbsssbba(igamelib.misc
Beauty
p680
(igamelib.data
SaveData
p681
(dp682
g6
(dp683
S'instance'
p684
(dp685
g10
I01
sg11
F53.064736689327894
sg12
F1.9313221411544639
sg13
I18
sg14
g15
sg16
I01
sg17
(igamelib.math2d
Vector2
p686
(dp687
S'y'
F36.610169491525426
sS'x'
F473.89830508474574
sbsssbba(igamelib.misc
Beauty
p688
(igamelib.data
SaveData
p689
(dp690
g6
(dp691
S'instance'
p692
(dp693
g10
I01
sg11
F353.84922399572122
sg12
F1.1992287016788767
sg13
I18
sg14
g15
sg16
I01
sg17
(igamelib.math2d
Vector2
p694
(dp695
S'y'
F388.47457627118644
sS'x'
F909.15254237288127
sbsssbba(igamelib.misc
Markable
p696
(igamelib.data
SaveData
p697
(dp698
g6
(dp699
S'instance'
p700
(dp701
g10
I01
sg11
F-270
sg12
F1
sg13
I10
sg14
g74
sg16
I01
sg17
(igamelib.math2d
Vector2
p702
(dp703
S'y'
F416
sS'x'
F416
sbsssbba(igamelib.misc
Beauty
p704
(igamelib.data
SaveData
p705
(dp706
g6
(dp707
S'instance'
p708
(dp709
g10
I01
sg11
F52.283644646858882
sg12
F1.6577239626082234
sg13
I18
sg14
g15
sg16
I01
sg17
(igamelib.math2d
Vector2
p710
(dp711
S'y'
F120
sS'x'
F666.10169491525426
sbsssbba(igamelib.towers
Bunker
p712
(igamelib.data
SaveData
p713
(dp714
g6
(dp715
S'instance'
p716
(dp717
g10
I01
sg17
(igamelib.math2d
Vector2
p718
(dp719
S'y'
F480
sS'x'
F480
sbsg11
F-630
sg16
I01
sssbba(igamelib.misc
Beauty
p720
(igamelib.data
SaveData
p721
(dp722
g6
(dp723
S'instance'
p724
(dp725
g10
I01
sg11
F252.24572510741655
sg12
F0.87563717650025263
sg13
I18
sg14
g15
sg16
I01
sg17
(igamelib.math2d
Vector2
p726
(dp727
S'y'
F116.94915254237287
sS'x'
F91.52542372881355
sbsssbba(igamelib.misc
Beauty
p728
(igamelib.data
SaveData
p729
(dp730
g6
(dp731
S'instance'
p732
(dp733
g10
I01
sg11
F300.95920100564922
sg12
F1.6745216546068509
sg13
I18
sg14
g15
sg16
I01
sg17
(igamelib.math2d
Vector2
p734
(dp735
S'y'
F648.81355932203383
sS'x'
F514.57627118644064
sbsssbba(igamelib.misc
Beauty
p736
(igamelib.data
SaveData
p737
(dp738
g6
(dp739
S'instance'
p740
(dp741
g10
I01
sg11
F100.2764928719487
sg12
F0.70443817028596278
sg13
I18
sg14
g15
sg16
I01
sg17
(igamelib.math2d
Vector2
p742
(dp743
S'y'
F628.47457627118638
sS'x'
F974.23728813559319
sbsssbba(igamelib.misc
Beauty
p744
(igamelib.data
SaveData
p745
(dp746
g6
(dp747
S'instance'
p748
(dp749
g10
I01
sg11
F114.26069191170487
sg12
F0.67697461887341581
sg13
I18
sg14
g15
sg16
I01
sg17
(igamelib.math2d
Vector2
p750
(dp751
S'y'
F27.457627118644066
sS'x'
F544.06779661016947
sbsssbba(igamelib.misc
Beauty
p752
(igamelib.data
SaveData
p753
(dp754
g6
(dp755
S'instance'
p756
(dp757
g10
I01
sg11
F90.179096768483561
sg12
F1.6189341560467316
sg13
I18
sg14
g15
sg16
I01
sg17
(igamelib.math2d
Vector2
p758
(dp759
S'y'
F198.30508474576271
sS'x'
F860.33898305084745
sbsssbba(igamelib.misc
Beauty
p760
(igamelib.data
SaveData
p761
(dp762
g6
(dp763
S'instance'
p764
(dp765
g10
I01
sg11
F3.7128482241802319
sg12
F0.68472967623185788
sg13
I18
sg14
g15
sg16
I01
sg17
(igamelib.math2d
Vector2
p766
(dp767
S'y'
F69.152542372881356
sS'x'
F117.96610169491525
sbsssbba(igamelib.misc
Beauty
p768
(igamelib.data
SaveData
p769
(dp770
g6
(dp771
S'instance'
p772
(dp773
g10
I01
sg11
F27.228786516361041
sg12
F1.859410941388205
sg13
I18
sg14
g15
sg16
I01
sg17
(igamelib.math2d
Vector2
p774
(dp775
S'y'
F636.61016949152543
sS'x'
F961.01694915254234
sbsssbba(igamelib.misc
Beauty
p776
(igamelib.data
SaveData
p777
(dp778
g6
(dp779
S'instance'
p780
(dp781
g10
I01
sg11
F274.5237277426574
sg12
F1.02428372884795
sg13
I18
sg14
g15
sg16
I01
sg17
(igamelib.math2d
Vector2
p782
(dp783
S'y'
F436.27118644067792
sS'x'
F-1.0169491525423728
sbsssbba(igamelib.misc
Beauty
p784
(igamelib.data
SaveData
p785
(dp786
g6
(dp787
S'instance'
p788
(dp789
g10
I01
sg11
F302.95057354491604
sg12
F1.0379710542585459
sg13
I18
sg14
g15
sg16
I01
sg17
(igamelib.math2d
Vector2
p790
(dp791
S'y'
F318.30508474576271
sS'x'
F965.0847457627118
sbsssbba(igamelib.misc
Beauty
p792
(igamelib.data
SaveData
p793
(dp794
g6
(dp795
S'instance'
p796
(dp797
g10
I01
sg11
F59.165065993825074
sg12
F1.0929408299283692
sg13
I18
sg14
g15
sg16
I01
sg17
(igamelib.math2d
Vector2
p798
(dp799
S'y'
F51.864406779661017
sS'x'
F311.18644067796606
sbsssbba(igamelib.misc
Beauty
p800
(igamelib.data
SaveData
p801
(dp802
g6
(dp803
S'instance'
p804
(dp805
g10
I01
sg11
F162.53097291871657
sg12
F0.85467402291079675
sg13
I18
sg14
g15
sg16
I01
sg17
(igamelib.math2d
Vector2
p806
(dp807
S'y'
F280.67796610169489
sS'x'
F798.30508474576266
sbsssbba(igamelib.misc
Beauty
p808
(igamelib.data
SaveData
p809
(dp810
g6
(dp811
S'instance'
p812
(dp813
g10
I01
sg11
F152.16135066426222
sg12
F1.0378131786363061
sg13
I18
sg14
g15
sg16
I01
sg17
(igamelib.math2d
Vector2
p814
(dp815
S'y'
F497.28813559322032
sS'x'
F50.847457627118644
sbsssbba(igamelib.misc
Beauty
p816
(igamelib.data
SaveData
p817
(dp818
g6
(dp819
S'instance'
p820
(dp821
g10
I01
sg11
F76.606937242565465
sg12
F1.5315773664354897
sg13
I18
sg14
g15
sg16
I01
sg17
(igamelib.math2d
Vector2
p822
(dp823
S'y'
F82.372881355932194
sS'x'
F625.42372881355925
sbsssbba(igamelib.misc
Beauty
p824
(igamelib.data
SaveData
p825
(dp826
g6
(dp827
S'instance'
p828
(dp829
g10
I01
sg11
F213.18067533722913
sg12
F1.8948354578361817
sg13
I18
sg14
g15
sg16
I01
sg17
(igamelib.math2d
Vector2
p830
(dp831
S'y'
F634.57627118644064
sS'x'
F1017.9661016949152
sbsssbba(igamelib.misc
Beauty
p832
(igamelib.data
SaveData
p833
(dp834
g6
(dp835
S'instance'
p836
(dp837
g10
I01
sg11
F34.347257659282548
sg12
F1.5178653559068163
sg13
I18
sg14
g15
sg16
I01
sg17
(igamelib.math2d
Vector2
p838
(dp839
S'y'
F72.20338983050847
sS'x'
F886.77966101694915
sbsssbba(igamelib.misc
Beauty
p840
(igamelib.data
SaveData
p841
(dp842
g6
(dp843
S'instance'
p844
(dp845
g10
I01
sg11
F272.86379916928195
sg12
F1.1926285833721613
sg13
I18
sg14
g15
sg16
I01
sg17
(igamelib.math2d
Vector2
p846
(dp847
S'y'
F186.10169491525423
sS'x'
F98.644067796610159
sbsssbba(igamelib.misc
Beauty
p848
(igamelib.data
SaveData
p849
(dp850
g6
(dp851
S'instance'
p852
(dp853
g10
I01
sg11
F26.972313164563722
sg12
F1.9305325991842877
sg13
I18
sg14
g15
sg16
I01
sg17
(igamelib.math2d
Vector2
p854
(dp855
S'y'
F653.89830508474574
sS'x'
F508.47457627118644
sbsssbba(igamelib.misc
Beauty
p856
(igamelib.data
SaveData
p857
(dp858
g6
(dp859
S'instance'
p860
(dp861
g10
I01
sg11
F304.15085761989548
sg12
F1.706050964040537
sg13
I18
sg14
g15
sg16
I01
sg17
(igamelib.math2d
Vector2
p862
(dp863
S'y'
F43.728813559322035
sS'x'
F792.2033898305084
sbsssbba(igamelib.misc
Beauty
p864
(igamelib.data
SaveData
p865
(dp866
g6
(dp867
S'instance'
p868
(dp869
g10
I01
sg11
F78.338285134273406
sg12
F1.5429631266999182
sg13
I18
sg14
g15
sg16
I01
sg17
(igamelib.math2d
Vector2
p870
(dp871
S'y'
F511.52542372881356
sS'x'
F69.152542372881356
sbsssbba(igamelib.misc
Beauty
p872
(igamelib.data
SaveData
p873
(dp874
g6
(dp875
S'instance'
p876
(dp877
g10
I01
sg11
F132.13510629516568
sg12
F1.9304668707653803
sg13
I18
sg14
g15
sg16
I01
sg17
(igamelib.math2d
Vector2
p878
(dp879
S'y'
F66.101694915254228
sS'x'
F234.91525423728814
sbsssbba(igamelib.misc
Beauty
p880
(igamelib.data
SaveData
p881
(dp882
g6
(dp883
S'instance'
p884
(dp885
g10
I01
sg11
F221.0155313147219
sg12
F1.8218049288962235
sg13
I18
sg14
g15
sg16
I01
sg17
(igamelib.math2d
Vector2
p886
(dp887
S'y'
F91.52542372881355
sS'x'
F186.10169491525423
sbsssbba(igamelib.misc
Beauty
p888
(igamelib.data
SaveData
p889
(dp890
g6
(dp891
S'instance'
p892
(dp893
g10
I01
sg11
F306.73195311179813
sg12
F0.85789491389218187
sg13
I18
sg14
g15
sg16
I01
sg17
(igamelib.math2d
Vector2
p894
(dp895
S'y'
F55.932203389830505
sS'x'
F328.47457627118644
sbsssbba(igamelib.misc
Beauty
p896
(igamelib.data
SaveData
p897
(dp898
g6
(dp899
S'instance'
p900
(dp901
g10
I01
sg11
F123.19612404749428
sg12
F0.82231401763349732
sg13
I18
sg14
g15
sg16
I01
sg17
(igamelib.math2d
Vector2
p902
(dp903
S'y'
F89.491525423728802
sS'x'
F593.89830508474574
sbsssbbatRp904
.