c__builtin__
set
p1
((lp2
(igamelib.misc
Beauty
p3
(igamelib.data
SaveData
p4
(dp5
S'classes'
p6
(dp7
S'instance'
p8
(dp9
S'__visible'
p10
I01
sS'_rotation'
p11
F213.45260238930294
sS'_Scale'
p12
F1.3569715539482976
sS'_z_index'
p13
I18
sS'_TextureName'
p14
S'deco_tree.png'
p15
sS'__renderCallback'
p16
I01
sS'_position'
p17
(igamelib.math2d
Vector2
p18
(dp19
S'y'
F149.4915254237288
sS'x'
F185.08474576271186
sbsssbba(igamelib.misc
Markable
p20
(igamelib.data
SaveData
p21
(dp22
g6
(dp23
S'instance'
p24
(dp25
g10
I01
sg11
F0
sg12
F1
sg13
I10
sg14
S'path_straight.png'
p26
sg16
I01
sg17
(igamelib.math2d
Vector2
p27
(dp28
S'y'
F480
sS'x'
F544
sbsssbba(igamelib.misc
Beauty
p29
(igamelib.data
SaveData
p30
(dp31
g6
(dp32
S'instance'
p33
(dp34
g10
I01
sg11
F294.64387685493205
sg12
F1.9159305112999336
sg13
I18
sg14
g15
sg16
I01
sg17
(igamelib.math2d
Vector2
p35
(dp36
S'y'
F27.457627118644066
sS'x'
F844.06779661016947
sbsssbba(igamelib.misc
Beauty
p37
(igamelib.data
SaveData
p38
(dp39
g6
(dp40
S'instance'
p41
(dp42
g10
I01
sg11
F295.37632499319392
sg12
F1.7465273046200884
sg13
I18
sg14
g15
sg16
I01
sg17
(igamelib.math2d
Vector2
p43
(dp44
S'y'
F36.610169491525426
sS'x'
F955.93220338983042
sbsssbba(igamelib.misc
Beauty
p45
(igamelib.data
SaveData
p46
(dp47
g6
(dp48
S'instance'
p49
(dp50
g10
I01
sg11
F261.11845342463891
sg12
F0.46688758680786463
sg13
I18
sg14
S'deco_tree.png'
p51
sg16
I01
sg17
(igamelib.math2d
Vector2
p52
(dp53
S'y'
F347
sS'x'
F49
sbsssbba(igamelib.misc
Markable
p54
(igamelib.data
SaveData
p55
(dp56
g6
(dp57
S'instance'
p58
(dp59
g10
I01
sg11
F-630
sg12
F1
sg13
I10
sg14
g26
sg16
I01
sg17
(igamelib.math2d
Vector2
p60
(dp61
S'y'
F416
sS'x'
F672
sbsssbba(igamelib.misc
Beauty
p62
(igamelib.data
SaveData
p63
(dp64
g6
(dp65
S'instance'
p66
(dp67
g10
I01
sg11
F116.39807863397002
sg12
F1.3635196061588022
sg13
I18
sg14
g15
sg16
I01
sg17
(igamelib.math2d
Vector2
p68
(dp69
S'y'
F20.338983050847457
sS'x'
F216.61016949152543
sbsssbba(igamelib.misc
Markable
p70
(igamelib.data
SaveData
p71
(dp72
g6
(dp73
S'instance'
p74
(dp75
g10
I01
sg11
F-1170
sg12
F1
sg13
I10
sg14
S'path_straight.png'
p76
sg16
I01
sg17
(igamelib.math2d
Vector2
p77
(dp78
S'y'
F416
sS'x'
F288
sbsssbba(igamelib.misc
Beauty
p79
(igamelib.data
SaveData
p80
(dp81
g6
(dp82
S'instance'
p83
(dp84
g10
I01
sg11
F63.021232909701482
sg12
F1.7649598839666518
sg13
I18
sg14
g15
sg16
I01
sg17
(igamelib.math2d
Vector2
p85
(dp86
S'y'
F192.06847360912982
sS'x'
F16.433666191155492
sbsssbba(igamelib.buildings
FastFood
p87
(igamelib.data
SaveData
p88
(dp89
g6
(dp90
S'instance'
p91
(dp92
g10
I01
sS'path'
p93
(igamelib.pathfinding
Path
p94
(igamelib.data
SaveData
p95
(dp96
g6
(dp97
S'instance'
p98
(dp99
g10
I01
sS'_Start'
p100
(igamelib.pathfinding
Waypoint
p101
(igamelib.data
SaveData
p102
(dp103
g6
(dp104
S'instance'
p105
(dp106
S'_previous'
p107
NsS'_next'
p108
(igamelib.pathfinding
Waypoint
p109
(igamelib.data
SaveData
p110
(dp111
g6
(dp112
S'instance'
p113
(dp114
g107
g101
sg108
(igamelib.pathfinding
Waypoint
p115
(igamelib.data
SaveData
p116
(dp117
g6
(dp118
S'instance'
p119
(dp120
g107
g109
sg108
(igamelib.pathfinding
Waypoint
p121
(igamelib.data
SaveData
p122
(dp123
g6
(dp124
S'instance'
p125
(dp126
g107
g115
sg108
Nsg17
(igamelib.math2d
Vector2
p127
(dp128
S'y'
F600
sS'x'
F541
sbsssbbsg17
(igamelib.math2d
Vector2
p129
(dp130
S'y'
F421
sS'x'
F542
sbsssbbsg17
(igamelib.math2d
Vector2
p131
(dp132
S'y'
F418
sS'x'
F735
sbsssbbsg17
(igamelib.math2d
Vector2
p133
(dp134
S'y'
F209
sS'x'
F737
sbsssbbsg16
I00
sssbbsg17
(igamelib.math2d
Vector2
p135
(dp136
S'y'
F163.3095577746077
sS'x'
F748.7589158345221
sbsg11
F-720
sg16
I01
sssbba(igamelib.misc
Beauty
p137
(igamelib.data
SaveData
p138
(dp139
g6
(dp140
S'instance'
p141
(dp142
g10
I01
sg11
F85.154688928223223
sg12
F1.156133669137446
sg13
I18
sg14
g15
sg16
I01
sg17
(igamelib.math2d
Vector2
p143
(dp144
S'y'
F328.67332382310985
sS'x'
F91.41226818830242
sbsssbba(igamelib.misc
Beauty
p145
(igamelib.data
SaveData
p146
(dp147
g6
(dp148
S'instance'
p149
(dp150
g10
I01
sg11
F329.49412258091303
sg12
F0.9532267514341406
sg13
I18
sg14
g15
sg16
I01
sg17
(igamelib.math2d
Vector2
p151
(dp152
S'y'
F86.276747503566327
sS'x'
F40.057061340941509
sbsssbba(igamelib.misc
Beauty
p153
(igamelib.data
SaveData
p154
(dp155
g6
(dp156
S'instance'
p157
(dp158
g10
I01
sg11
F170.01695875616724
sg12
F0.94960687507172503
sg13
I18
sg14
g15
sg16
I01
sg17
(igamelib.math2d
Vector2
p159
(dp160
S'y'
F553.60912981455067
sS'x'
F7.1897289586305275
sbsssbba(igamelib.misc
Beauty
p161
(igamelib.data
SaveData
p162
(dp163
g6
(dp164
S'instance'
p165
(dp166
g10
I01
sg11
F96.465968677067863
sg12
F1.6495309123045532
sg13
I18
sg14
g15
sg16
I01
sg17
(igamelib.math2d
Vector2
p167
(dp168
S'y'
F440.62767475035662
sS'x'
F27.731811697574894
sbsssbba(igamelib.misc
Beauty
p169
(igamelib.data
SaveData
p170
(dp171
g6
(dp172
S'instance'
p173
(dp174
g10
I01
sg11
F18.922124915538294
sg12
F1.4783840774011119
sg13
I18
sg14
g15
sg16
I01
sg17
(igamelib.math2d
Vector2
p175
(dp176
S'y'
F522.71186440677968
sS'x'
F658.98305084745755
sbsssbba(igamelib.misc
Beauty
p177
(igamelib.data
SaveData
p178
(dp179
g6
(dp180
S'instance'
p181
(dp182
g10
I01
sg11
F313.32533252423644
sg12
F1.550008945763484
sg13
I18
sg14
g15
sg16
I01
sg17
(igamelib.math2d
Vector2
p183
(dp184
S'y'
F16.433666191155492
sS'x'
F398.5164051355207
sbsssbba(igamelib.misc
Beauty
p185
(igamelib.data
SaveData
p186
(dp187
g6
(dp188
S'instance'
p189
(dp190
g10
I01
sg11
F112.70781898625097
sg12
F1.4155752403407151
sg13
I18
sg14
g15
sg16
I01
sg17
(igamelib.math2d
Vector2
p191
(dp192
S'y'
F313.26676176890157
sS'x'
F-1.0271041369472182
sbsssbba(igamelib.towers
Bunker
p193
(igamelib.data
SaveData
p194
(dp195
g6
(dp196
S'instance'
p197
(dp198
g10
I01
sg17
(igamelib.math2d
Vector2
p199
(dp200
S'y'
F352
sS'x'
F352
sbsg11
F-1350
sg16
I01
sssbba(igamelib.misc
Beauty
p201
(igamelib.data
SaveData
p202
(dp203
g6
(dp204
S'instance'
p205
(dp206
g10
I01
sg11
F46.278281225084839
sg12
F1.1413481186022554
sg13
I18
sg14
g15
sg16
I01
sg17
(igamelib.math2d
Vector2
p207
(dp208
S'y'
F5.1355206847360915
sS'x'
F482.73894436519259
sbsssbba(igamelib.towers
Bunker
p209
(igamelib.data
SaveData
p210
(dp211
g6
(dp212
S'instance'
p213
(dp214
g10
I01
sg17
(igamelib.math2d
Vector2
p215
(dp216
S'y'
F352
sS'x'
F480
sbsg11
F-360
sg16
I01
sssbba(igamelib.buildings
FastFood
p217
(igamelib.data
SaveData
p218
(dp219
g6
(dp220
S'instance'
p221
(dp222
g10
I01
sg93
(igamelib.pathfinding
Path
p223
(igamelib.data
SaveData
p224
(dp225
g6
(dp226
S'instance'
p227
(dp228
g10
I01
sg100
(igamelib.pathfinding
Waypoint
p229
(igamelib.data
SaveData
p230
(dp231
g6
(dp232
S'instance'
p233
(dp234
g107
Nsg108
(igamelib.pathfinding
Waypoint
p235
(igamelib.data
SaveData
p236
(dp237
g6
(dp238
S'instance'
p239
(dp240
g107
g229
sg108
(igamelib.pathfinding
Waypoint
p241
(igamelib.data
SaveData
p242
(dp243
g6
(dp244
S'instance'
p245
(dp246
g107
g235
sg108
Nsg17
(igamelib.math2d
Vector2
p247
(dp248
S'y'
F600
sS'x'
F542
sbsssbbsg17
(igamelib.math2d
Vector2
p249
(dp250
S'y'
F423
sS'x'
F540
sbsssbbsg17
(igamelib.math2d
Vector2
p251
(dp252
S'y'
F418
sS'x'
F252
sbsssbbsg16
I00
sssbbsg17
(igamelib.math2d
Vector2
p253
(dp254
S'y'
F416
sS'x'
F224
sbsg11
F-1260
sg16
I01
sssbba(igamelib.misc
Beauty
p255
(igamelib.data
SaveData
p256
(dp257
g6
(dp258
S'instance'
p259
(dp260
g10
I01
sg11
F351.62812299304784
sg12
F1.9374501112190854
sg13
I18
sg14
g51
sg16
I01
sg17
(igamelib.math2d
Vector2
p261
(dp262
S'y'
F610
sS'x'
F260
sbsssbba(igamelib.misc
Beauty
p263
(igamelib.data
SaveData
p264
(dp265
g6
(dp266
S'instance'
p267
(dp268
g10
I01
sg11
F-42.871135021091391
sg12
F1.12350207962383
sg13
I18
sg14
S'deco_tree.png'
p269
sg16
I01
sg17
(igamelib.math2d
Vector2
p270
(dp271
S'y'
F325
sS'x'
F603
sbsssbba(igamelib.misc
Markable
p272
(igamelib.data
SaveData
p273
(dp274
g6
(dp275
S'instance'
p276
(dp277
g10
I01
sg11
F-720
sg12
F1
sg13
I10
sg14
g26
sg16
I01
sg17
(igamelib.math2d
Vector2
p278
(dp279
S'y'
F288
sS'x'
F736
sbsssbba(igamelib.towers
Tank
p280
(igamelib.data
SaveData
p281
(dp282
g6
(dp283
S'instance'
p284
(dp285
g10
I01
sg17
(igamelib.math2d
Vector2
p286
(dp287
S'y'
F352
sS'x'
F672
sbsg11
F-1305
sg16
I01
sssbba(igamelib.misc
Beauty
p288
(igamelib.data
SaveData
p289
(dp290
g6
(dp291
S'instance'
p292
(dp293
g10
I01
sg11
F115.27464816167767
sg12
F1.4494550573219092
sg13
I18
sg14
g51
sg16
I01
sg17
(igamelib.math2d
Vector2
p294
(dp295
S'y'
F597
sS'x'
F1000
sbsssbba(igamelib.misc
Beauty
p296
(igamelib.data
SaveData
p297
(dp298
g6
(dp299
S'instance'
p300
(dp301
g10
I01
sg11
F243.52976093483423
sg12
F1.2229409328969307
sg13
I18
sg14
g15
sg16
I01
sg17
(igamelib.math2d
Vector2
p302
(dp303
S'y'
F518.68758915834519
sS'x'
F14.379457917261055
sbsssbba(igamelib.misc
Markable
p304
(igamelib.data
SaveData
p305
(dp306
g6
(dp307
S'instance'
p308
(dp309
g10
I01
sg11
F-540
sg12
F1
sg13
I10
sg14
S'path_T.png'
p310
sg16
I01
sg17
(igamelib.math2d
Vector2
p311
(dp312
S'y'
F416
sS'x'
F544
sbsssbba(igamelib.misc
Beauty
p313
(igamelib.data
SaveData
p314
(dp315
g6
(dp316
S'instance'
p317
(dp318
g10
I01
sg11
F59.787158070953154
sg12
F1.5730103421544246
sg13
I18
sg14
g269
sg16
I01
sg17
(igamelib.math2d
Vector2
p319
(dp320
S'y'
F238
sS'x'
F329
sbsssbba(igamelib.misc
Beauty
p321
(igamelib.data
SaveData
p322
(dp323
g6
(dp324
S'instance'
p325
(dp326
g10
I01
sg11
F13.941204443735064
sg12
F1.6207593683965233
sg13
I18
sg14
g15
sg16
I01
sg17
(igamelib.math2d
Vector2
p327
(dp328
S'y'
F546.41940085592012
sS'x'
F62.653352353780313
sbsssbba(igamelib.misc
Beauty
p329
(igamelib.data
SaveData
p330
(dp331
g6
(dp332
S'instance'
p333
(dp334
g10
I01
sg11
F297.49896231865921
sg12
F0.91973464032594043
sg13
I18
sg14
g15
sg16
I01
sg17
(igamelib.math2d
Vector2
p335
(dp336
S'y'
F109.83050847457626
sS'x'
F1013.8983050847457
sbsssbba(igamelib.misc
Beauty
p337
(igamelib.data
SaveData
p338
(dp339
g6
(dp340
S'instance'
p341
(dp342
g10
I01
sg11
F24.859050547017119
sg12
F1.868630442849575
sg13
I18
sg14
g15
sg16
I01
sg17
(igamelib.math2d
Vector2
p343
(dp344
S'y'
F693.29529243937236
sS'x'
F112.98145506419401
sbsssbba(igamelib.misc
Markable
p345
(igamelib.data
SaveData
p346
(dp347
g6
(dp348
S'instance'
p349
(dp350
g10
I01
sg11
F-720
sg12
F1
sg13
I10
sg14
g26
sg16
I01
sg17
(igamelib.math2d
Vector2
p351
(dp352
S'y'
F352
sS'x'
F736
sbsssbba(igamelib.misc
Beauty
p353
(igamelib.data
SaveData
p354
(dp355
g6
(dp356
S'instance'
p357
(dp358
g10
I01
sg11
F266.78497235163314
sg12
F1.7242185909653223
sg13
I18
sg14
g15
sg16
I01
sg17
(igamelib.math2d
Vector2
p359
(dp360
S'y'
F288.81355932203388
sS'x'
F1022.0338983050847
sbsssbba(igamelib.misc
Beauty
p361
(igamelib.data
SaveData
p362
(dp363
g6
(dp364
S'instance'
p365
(dp366
g10
I01
sg11
F275.93501390030531
sg12
F1.1076134654262366
sg13
I18
sg14
g15
sg16
I01
sg17
(igamelib.math2d
Vector2
p367
(dp368
S'y'
F693.29529243937236
sS'x'
F20.542082738944366
sbsssbba(igamelib.buildings
HQ
p369
(igamelib.data
SaveData
p370
(dp371
g6
(dp372
S'instance'
p373
(dp374
g10
I01
sg17
(igamelib.math2d
Vector2
p375
(dp376
S'y'
F641
sS'x'
F543
sbsg11
F0
sg16
I01
sssbba(igamelib.misc
Beauty
p377
(igamelib.data
SaveData
p378
(dp379
g6
(dp380
S'instance'
p381
(dp382
g10
I01
sg11
F113.88361458127198
sg12
F1.0578130920506637
sg13
I18
sg14
g15
sg16
I01
sg17
(igamelib.math2d
Vector2
p383
(dp384
S'y'
F686.10556348074181
sS'x'
F335.86305278174035
sbsssbba(igamelib.misc
Beauty
p385
(igamelib.data
SaveData
p386
(dp387
g6
(dp388
S'instance'
p389
(dp390
g10
I01
sg11
F278.99732388854511
sg12
F0.77217585874561756
sg13
I18
sg14
g269
sg16
I01
sg17
(igamelib.math2d
Vector2
p391
(dp392
S'y'
F112
sS'x'
F670
sbsssbba(igamelib.misc
Beauty
p393
(igamelib.data
SaveData
p394
(dp395
g6
(dp396
S'instance'
p397
(dp398
g10
I01
sg11
F25.36028072580703
sg12
F1.3404419292558734
sg13
I18
sg14
g15
sg16
I01
sg17
(igamelib.math2d
Vector2
p399
(dp400
S'y'
F628.58773181169761
sS'x'
F10.271041369472183
sbsssbba(igamelib.misc
Beauty
p401
(igamelib.data
SaveData
p402
(dp403
g6
(dp404
S'instance'
p405
(dp406
g10
I01
sg11
F332.21300132171706
sg12
F1.8606000167074697
sg13
I18
sg14
g15
sg16
I01
sg17
(igamelib.math2d
Vector2
p407
(dp408
S'y'
F714.86447931526391
sS'x'
F295.80599144079883
sbsssbba(igamelib.misc
Beauty
p409
(igamelib.data
SaveData
p410
(dp411
g6
(dp412
S'instance'
p413
(dp414
g10
I01
sg11
F281.79357537470469
sg12
F1.1894168182352411
sg13
I18
sg14
g15
sg16
I01
sg17
(igamelib.math2d
Vector2
p415
(dp416
S'y'
F50.847457627118644
sS'x'
F60
sbsssbba(igamelib.misc
Beauty
p417
(igamelib.data
SaveData
p418
(dp419
g6
(dp420
S'instance'
p421
(dp422
g10
I01
sg11
F173.55518888063023
sg12
F0.89931267969584483
sg13
I18
sg14
g15
sg16
I01
sg17
(igamelib.math2d
Vector2
p423
(dp424
S'y'
F185.08474576271186
sS'x'
F510.50847457627117
sbsssbba(igamelib.misc
Beauty
p425
(igamelib.data
SaveData
p426
(dp427
g6
(dp428
S'instance'
p429
(dp430
g10
I01
sg11
F188.88190052203117
sg12
F0.8031579129526436
sg13
I18
sg14
g51
sg16
I01
sg17
(igamelib.math2d
Vector2
p431
(dp432
S'y'
F624
sS'x'
F678
sbsssbba(igamelib.misc
Beauty
p433
(igamelib.data
SaveData
p434
(dp435
g6
(dp436
S'instance'
p437
(dp438
g10
I01
sg11
F66.057688714562914
sg12
F0.57397629857655197
sg13
I18
sg14
g51
sg16
I01
sg17
(igamelib.math2d
Vector2
p439
(dp440
S'y'
F559
sS'x'
F446
sbsssbba(igamelib.misc
Markable
p441
(igamelib.data
SaveData
p442
(dp443
g6
(dp444
S'instance'
p445
(dp446
g10
I01
sg11
F-720
sg12
F1
sg13
I10
sg14
g26
sg16
I01
sg17
(igamelib.math2d
Vector2
p447
(dp448
S'y'
F224
sS'x'
F736
sbsssbba(igamelib.misc
Beauty
p449
(igamelib.data
SaveData
p450
(dp451
g6
(dp452
S'instance'
p453
(dp454
g10
I01
sg11
F117.37538334973652
sg12
F1.0413676067271
sg13
I18
sg14
g15
sg16
I01
sg17
(igamelib.math2d
Vector2
p455
(dp456
S'y'
F243.0508474576271
sS'x'
F77.288135593220332
sbsssbba(igamelib.misc
Beauty
p457
(igamelib.data
SaveData
p458
(dp459
g6
(dp460
S'instance'
p461
(dp462
g10
I01
sg11
F25.294313355610139
sg12
F1.2499978688268225
sg13
I18
sg14
g15
sg16
I01
sg17
(igamelib.math2d
Vector2
p463
(dp464
S'y'
F27.731811697574894
sS'x'
F655.29243937232525
sbsssbba(igamelib.misc
Markable
p465
(igamelib.data
SaveData
p466
(dp467
g6
(dp468
S'instance'
p469
(dp470
g10
I01
sg11
F-810
sg12
F1
sg13
I10
sg14
g26
sg16
I01
sg17
(igamelib.math2d
Vector2
p471
(dp472
S'y'
F416
sS'x'
F416
sbsssbba(igamelib.misc
Markable
p473
(igamelib.data
SaveData
p474
(dp475
g6
(dp476
S'instance'
p477
(dp478
g10
I01
sg11
F-630
sg12
F1
sg13
I10
sg14
g26
sg16
I01
sg17
(igamelib.math2d
Vector2
p479
(dp480
S'y'
F416
sS'x'
F608
sbsssbba(igamelib.misc
Beauty
p481
(igamelib.data
SaveData
p482
(dp483
g6
(dp484
S'instance'
p485
(dp486
g10
I01
sg11
F249.96912246682555
sg12
F0.84713892722167083
sg13
I18
sg14
g269
sg16
I01
sg17
(igamelib.math2d
Vector2
p487
(dp488
S'y'
F396
sS'x'
F89
sbsssbba(igamelib.misc
Beauty
p489
(igamelib.data
SaveData
p490
(dp491
g6
(dp492
S'instance'
p493
(dp494
g10
I01
sg11
F118.23111499309358
sg12
F1.3670441480797531
sg13
I18
sg14
g51
sg16
I01
sg17
(igamelib.math2d
Vector2
p495
(dp496
S'y'
F482
sS'x'
F100
sbsssbba(igamelib.misc
Beauty
p497
(igamelib.data
SaveData
p498
(dp499
g6
(dp500
S'instance'
p501
(dp502
g10
I01
sg11
F246.84410874855467
sg12
F0.654883206226752
sg13
I18
sg14
g15
sg16
I01
sg17
(igamelib.math2d
Vector2
p503
(dp504
S'y'
F671.7261055634807
sS'x'
F61.626248216833098
sbsssbba(igamelib.towers
Bunker
p505
(igamelib.data
SaveData
p506
(dp507
g6
(dp508
S'instance'
p509
(dp510
g10
I01
sg17
(igamelib.math2d
Vector2
p511
(dp512
S'y'
F480
sS'x'
F416
sbsg11
F-270
sg16
I01
sssbba(igamelib.misc
Beauty
p513
(igamelib.data
SaveData
p514
(dp515
g6
(dp516
S'instance'
p517
(dp518
g10
I01
sg11
F97.046224485758216
sg12
F1.9215271057263668
sg13
I18
sg14
g15
sg16
I01
sg17
(igamelib.math2d
Vector2
p519
(dp520
S'y'
F559.77175463623394
sS'x'
F165.36376604850213
sbsssbba(igamelib.misc
Beauty
p521
(igamelib.data
SaveData
p522
(dp523
g6
(dp524
S'instance'
p525
(dp526
g10
I01
sg11
F47.750956191486978
sg12
F1.9060764296831334
sg13
I18
sg14
g15
sg16
I01
sg17
(igamelib.math2d
Vector2
p527
(dp528
S'y'
F687.13266761768898
sS'x'
F198.23109843081312
sbsssbba(igamelib.misc
Markable
p529
(igamelib.data
SaveData
p530
(dp531
g6
(dp532
S'instance'
p533
(dp534
g10
I01
sg11
F0
sg12
F1
sg13
I10
sg14
g26
sg16
I01
sg17
(igamelib.math2d
Vector2
p535
(dp536
S'y'
F544
sS'x'
F544
sbsssbba(igamelib.misc
Markable
p537
(igamelib.data
SaveData
p538
(dp539
g6
(dp540
S'instance'
p541
(dp542
g10
I01
sg11
F-630
sg12
F1
sg13
I10
sg14
S'path_corner.png'
p543
sg16
I01
sg17
(igamelib.math2d
Vector2
p544
(dp545
S'y'
F416
sS'x'
F736
sbsssbba(igamelib.misc
Markable
p546
(igamelib.data
SaveData
p547
(dp548
g6
(dp549
S'instance'
p550
(dp551
g10
I01
sg11
F-810
sg12
F1
sg13
I10
sg14
g26
sg16
I01
sg17
(igamelib.math2d
Vector2
p552
(dp553
S'y'
F416
sS'x'
F480
sbsssbba(igamelib.misc
Beauty
p554
(igamelib.data
SaveData
p555
(dp556
g6
(dp557
S'instance'
p558
(dp559
g10
I01
sg11
F-17.391389644324988
sg12
F1.7834056394141284
sg13
I18
sg14
g51
sg16
I01
sg17
(igamelib.math2d
Vector2
p560
(dp561
S'y'
F618
sS'x'
F814
sbsssbba(igamelib.misc
Markable
p562
(igamelib.data
SaveData
p563
(dp564
g6
(dp565
S'instance'
p566
(dp567
g10
I01
sg11
F-1170
sg12
F1
sg13
I10
sg14
g76
sg16
I01
sg17
(igamelib.math2d
Vector2
p568
(dp569
S'y'
F416
sS'x'
F352
sbsssbba(igamelib.misc
Beauty
p570
(igamelib.data
SaveData
p571
(dp572
g6
(dp573
S'instance'
p574
(dp575
g10
I01
sg11
F79.487662525673642
sg12
F1.7840059050359478
sg13
I18
sg14
g51
sg16
I01
sg17
(igamelib.math2d
Vector2
p576
(dp577
S'y'
F631
sS'x'
F108
sbsssbbatRp578
.