c__builtin__
set
p1
((lp2
(igamelib.misc
Beauty
p3
(igamelib.data
SaveData
p4
(dp5
S'classes'
p6
(dp7
S'instance'
p8
(dp9
S'__visible'
p10
I01
sS'_rotation'
p11
F343.78221833981564
sS'_Scale'
p12
F1.767730773207415
sS'_z_index'
p13
I18
sS'_TextureName'
p14
S'deco_tree.png'
p15
sS'__renderCallback'
p16
I01
sS'_position'
p17
(igamelib.math2d
Vector2
p18
(dp19
S'y'
F63.680456490727529
sS'x'
F846.33380884450787
sbsssbba(igamelib.misc
Beauty
p20
(igamelib.data
SaveData
p21
(dp22
g6
(dp23
S'instance'
p24
(dp25
g10
I01
sg11
F186.3257267376018
sg12
F1.9140683058223185
sg13
I18
sg14
g15
sg16
I01
sg17
(igamelib.math2d
Vector2
p26
(dp27
S'y'
F577.23252496433668
sS'x'
F829.9001426533523
sbsssbba(igamelib.misc
Beauty
p28
(igamelib.data
SaveData
p29
(dp30
g6
(dp31
S'instance'
p32
(dp33
g10
I01
sg11
F234.7264665384362
sg12
F0.6154643409002134
sg13
I18
sg14
g15
sg16
I01
sg17
(igamelib.math2d
Vector2
p34
(dp35
S'y'
F574.15121255349504
sS'x'
F767.24679029957201
sbsssbba(igamelib.misc
Markable
p36
(igamelib.data
SaveData
p37
(dp38
g6
(dp39
S'instance'
p40
(dp41
g10
I01
sg11
F-1260
sg12
F1
sg13
I10
sg14
S'path_T.png'
p42
sg16
I01
sg17
(igamelib.math2d
Vector2
p43
(dp44
S'y'
F288
sS'x'
F608
sbsssbba(igamelib.misc
Beauty
p45
(igamelib.data
SaveData
p46
(dp47
g6
(dp48
S'instance'
p49
(dp50
g10
I01
sg11
F306.34449421539205
sg12
F0.72965072266801378
sg13
I18
sg14
g15
sg16
I01
sg17
(igamelib.math2d
Vector2
p51
(dp52
S'y'
F545.39229671897294
sS'x'
F208.50213980028531
sbsssbba(igamelib.misc
Beauty
p53
(igamelib.data
SaveData
p54
(dp55
g6
(dp56
S'instance'
p57
(dp58
g10
I01
sg11
F335.67388608194801
sg12
F0.90272764128251137
sg13
I18
sg14
g15
sg16
I01
sg17
(igamelib.math2d
Vector2
p59
(dp60
S'y'
F360.51355206847359
sS'x'
F1047.6462196861626
sbsssbba(igamelib.misc
Beauty
p61
(igamelib.data
SaveData
p62
(dp63
g6
(dp64
S'instance'
p65
(dp66
g10
I01
sg11
F218.7499586381382
sg12
F1.8557895002317164
sg13
I18
sg14
g15
sg16
I01
sg17
(igamelib.math2d
Vector2
p67
(dp68
S'y'
F52.382310984308134
sS'x'
F193.09557774607703
sbsssbba(igamelib.misc
Beauty
p69
(igamelib.data
SaveData
p70
(dp71
g6
(dp72
S'instance'
p73
(dp74
g10
I01
sg11
F179.24433550673788
sg12
F1.8063327362910149
sg13
I18
sg14
g15
sg16
I01
sg17
(igamelib.math2d
Vector2
p75
(dp76
S'y'
F599.65714285714284
sS'x'
F166.62857142857141
sbsssbba(igamelib.misc
Beauty
p77
(igamelib.data
SaveData
p78
(dp79
g6
(dp80
S'instance'
p81
(dp82
g10
I01
sg11
F299.54797353183449
sg12
F0.51524049961592255
sg13
I18
sg14
g15
sg16
I01
sg17
(igamelib.math2d
Vector2
p83
(dp84
S'y'
F514.28571428571422
sS'x'
F48.342857142857142
sbsssbba(igamelib.misc
Beauty
p85
(igamelib.data
SaveData
p86
(dp87
g6
(dp88
S'instance'
p89
(dp90
g10
I01
sg11
F277.52977351782101
sg12
F1.2676920196774617
sg13
I18
sg14
g15
sg16
I01
sg17
(igamelib.math2d
Vector2
p91
(dp92
S'y'
F426.24821683309557
sS'x'
F916.17689015691872
sbsssbba(igamelib.misc
Beauty
p93
(igamelib.data
SaveData
p94
(dp95
g6
(dp96
S'instance'
p97
(dp98
g10
I01
sg11
F101.60482531802589
sg12
F0.75727581459537241
sg13
I18
sg14
g15
sg16
I01
sg17
(igamelib.math2d
Vector2
p99
(dp100
S'y'
F62.742857142857133
sS'x'
F398.05714285714282
sbsssbba(igamelib.misc
Beauty
p101
(igamelib.data
SaveData
p102
(dp103
g6
(dp104
S'instance'
p105
(dp106
g10
I01
sg11
F163.86061997013721
sg12
F0.85012092654259186
sg13
I18
sg14
g15
sg16
I01
sg17
(igamelib.math2d
Vector2
p107
(dp108
S'y'
F16.433666191155492
sS'x'
F938.77318116975744
sbsssbba(igamelib.misc
Beauty
p109
(igamelib.data
SaveData
p110
(dp111
g6
(dp112
S'instance'
p113
(dp114
g10
I01
sg11
F146.67077129904754
sg12
F0.56564450778825603
sg13
I18
sg14
g15
sg16
I01
sg17
(igamelib.math2d
Vector2
p115
(dp116
S'y'
F311.65714285714284
sS'x'
F270.51428571428568
sbsssbba(igamelib.misc
Beauty
p117
(igamelib.data
SaveData
p118
(dp119
g6
(dp120
S'instance'
p121
(dp122
g10
I01
sg11
F252.70601580304955
sg12
F1.9217950217844986
sg13
I18
sg14
g15
sg16
I01
sg17
(igamelib.math2d
Vector2
p123
(dp124
S'y'
F74.05714285714285
sS'x'
F100.79999999999998
sbsssbba(igamelib.misc
Beauty
p125
(igamelib.data
SaveData
p126
(dp127
g6
(dp128
S'instance'
p129
(dp130
g10
I01
sg11
F234.8613358914792
sg12
F1.4764625820823023
sg13
I18
sg14
g15
sg16
I01
sg17
(igamelib.math2d
Vector2
p131
(dp132
S'y'
F485.48571428571427
sS'x'
F169.71428571428569
sbsssbba(igamelib.misc
Beauty
p133
(igamelib.data
SaveData
p134
(dp135
g6
(dp136
S'instance'
p137
(dp138
g10
I01
sg11
F329.4921249547848
sg12
F1.4334367586221826
sg13
I18
sg14
g15
sg16
I01
sg17
(igamelib.math2d
Vector2
p139
(dp140
S'y'
F-16.433666191155492
sS'x'
F588.53067047075604
sbsssbba(igamelib.misc
Beauty
p141
(igamelib.data
SaveData
p142
(dp143
g6
(dp144
S'instance'
p145
(dp146
g10
I01
sg11
F236.78615169220217
sg12
F1.7246574246146611
sg13
I18
sg14
g15
sg16
I01
sg17
(igamelib.math2d
Vector2
p147
(dp148
S'y'
F26.704707560627675
sS'x'
F464.25106990014262
sbsssbba(igamelib.misc
Beauty
p149
(igamelib.data
SaveData
p150
(dp151
g6
(dp152
S'instance'
p153
(dp154
g10
I01
sg11
F100.72457410804789
sg12
F0.77805471155641448
sg13
I18
sg14
g15
sg16
I01
sg17
(igamelib.math2d
Vector2
p155
(dp156
S'y'
F670.69900142653353
sS'x'
F443.70898716119831
sbsssbba(igamelib.misc
Beauty
p157
(igamelib.data
SaveData
p158
(dp159
g6
(dp160
S'instance'
p161
(dp162
g10
I01
sg11
F298.29839011371763
sg12
F0.72206077606405528
sg13
I18
sg14
g15
sg16
I01
sg17
(igamelib.math2d
Vector2
p163
(dp164
S'y'
F86.276747503566327
sS'x'
F128.38801711840227
sbsssbba(igamelib.misc
Beauty
p165
(igamelib.data
SaveData
p166
(dp167
g6
(dp168
S'instance'
p169
(dp170
g10
I01
sg11
F201.4269114468336
sg12
F1.6794402568997935
sg13
I18
sg14
g15
sg16
I01
sg17
(igamelib.math2d
Vector2
p171
(dp172
S'y'
F548.47360912981458
sS'x'
F130.44222539229671
sbsssbba(igamelib.misc
Beauty
p173
(igamelib.data
SaveData
p174
(dp175
g6
(dp176
S'instance'
p177
(dp178
g10
I01
sg11
F240.74739219963888
sg12
F1.6407637588272665
sg13
I18
sg14
g15
sg16
I01
sg17
(igamelib.math2d
Vector2
p179
(dp180
S'y'
F387.77142857142854
sS'x'
F78.171428571428564
sbsssbba(igamelib.misc
Beauty
p181
(igamelib.data
SaveData
p182
(dp183
g6
(dp184
S'instance'
p185
(dp186
g10
I01
sg11
F355.84251326945565
sg12
F1.1700645395381328
sg13
I18
sg14
g15
sg16
I01
sg17
(igamelib.math2d
Vector2
p187
(dp188
S'y'
F690.21398002853061
sS'x'
F759.02995720399429
sbsssbba(igamelib.misc
Beauty
p189
(igamelib.data
SaveData
p190
(dp191
g6
(dp192
S'instance'
p193
(dp194
g10
I01
sg11
F70.192820973534367
sg12
F1.4507894502092553
sg13
I18
sg14
g15
sg16
I01
sg17
(igamelib.math2d
Vector2
p195
(dp196
S'y'
F90.385164051355204
sS'x'
F407.76034236804566
sbsssbba(igamelib.misc
Beauty
p197
(igamelib.data
SaveData
p198
(dp199
g6
(dp200
S'instance'
p201
(dp202
g10
I01
sg11
F95.556299947036109
sg12
F0.49466054047961305
sg13
I18
sg14
g15
sg16
I01
sg17
(igamelib.math2d
Vector2
p203
(dp204
S'y'
F28.75891583452211
sS'x'
F209.52924393723254
sbsssbba(igamelib.misc
Beauty
p205
(igamelib.data
SaveData
p206
(dp207
g6
(dp208
S'instance'
p209
(dp210
g10
I01
sg11
F280.33254948807769
sg12
F1.3284267822148812
sg13
I18
sg14
g15
sg16
I01
sg17
(igamelib.math2d
Vector2
p211
(dp212
S'y'
F334.28571428571428
sS'x'
F40.114285714285714
sbsssbba(igamelib.misc
Beauty
p213
(igamelib.data
SaveData
p214
(dp215
g6
(dp216
S'instance'
p217
(dp218
g10
I01
sg11
F312.79315475150776
sg12
F1.4216422628557717
sg13
I18
sg14
g15
sg16
I01
sg17
(igamelib.math2d
Vector2
p219
(dp220
S'y'
F117.08987161198289
sS'x'
F513.5520684736091
sbsssbba(igamelib.misc
Beauty
p221
(igamelib.data
SaveData
p222
(dp223
g6
(dp224
S'instance'
p225
(dp226
g10
I01
sg11
F86.888552813792145
sg12
F1.1360877661109403
sg13
I18
sg14
g15
sg16
I01
sg17
(igamelib.math2d
Vector2
p227
(dp228
S'y'
F85.371428571428567
sS'x'
F275.65714285714284
sbsssbba(igamelib.misc
Beauty
p229
(igamelib.data
SaveData
p230
(dp231
g6
(dp232
S'instance'
p233
(dp234
g10
I01
sg11
F130.18606309237214
sg12
F1.7234014159734812
sg13
I18
sg14
g15
sg16
I01
sg17
(igamelib.math2d
Vector2
p235
(dp236
S'y'
F611.99999999999989
sS'x'
F38.05714285714285
sbsssbba(igamelib.towers
Bunker
p237
(igamelib.data
SaveData
p238
(dp239
g6
(dp240
S'instance'
p241
(dp242
g10
I01
sg17
(igamelib.math2d
Vector2
p243
(dp244
S'y'
F416
sS'x'
F544
sbsg11
F-1350
sg16
I01
sssbba(igamelib.misc
Beauty
p245
(igamelib.data
SaveData
p246
(dp247
g6
(dp248
S'instance'
p249
(dp250
g10
I01
sg11
F326.64802700579389
sg12
F0.96443769670494195
sg13
I18
sg14
g15
sg16
I01
sg17
(igamelib.math2d
Vector2
p251
(dp252
S'y'
F129.59999999999999
sS'x'
F152.2285714285714
sbsssbba(igamelib.towers
Tank
p253
(igamelib.data
SaveData
p254
(dp255
g6
(dp256
S'instance'
p257
(dp258
g10
I01
sg17
(igamelib.math2d
Vector2
p259
(dp260
S'y'
F480
sS'x'
F544
sbsg11
F-1282.5
sg16
I01
sssbba(igamelib.buildings
FastFood
p261
(igamelib.data
SaveData
p262
(dp263
g6
(dp264
S'instance'
p265
(dp266
g10
I01
sS'path'
p267
(igamelib.pathfinding
Path
p268
(igamelib.data
SaveData
p269
(dp270
g6
(dp271
S'instance'
p272
(dp273
g10
I01
sS'_Start'
p274
(igamelib.pathfinding
Waypoint
p275
(igamelib.data
SaveData
p276
(dp277
g6
(dp278
S'instance'
p279
(dp280
S'_previous'
p281
NsS'_next'
p282
(igamelib.pathfinding
Waypoint
p283
(igamelib.data
SaveData
p284
(dp285
g6
(dp286
S'instance'
p287
(dp288
g281
g275
sg282
(igamelib.pathfinding
Waypoint
p289
(igamelib.data
SaveData
p290
(dp291
g6
(dp292
S'instance'
p293
(dp294
g281
g283
sg282
Nsg17
(igamelib.math2d
Vector2
p295
(dp296
S'y'
F631
sS'x'
F609
sbsssbbsg17
(igamelib.math2d
Vector2
p297
(dp298
S'y'
F291
sS'x'
F610
sbsssbbsg17
(igamelib.math2d
Vector2
p299
(dp300
S'y'
F291
sS'x'
F755
sbsssbbsg16
I00
sssbbsg17
(igamelib.math2d
Vector2
p301
(dp302
S'y'
F288
sS'x'
F800
sbsg11
F-1170
sg16
I01
sssbba(igamelib.misc
Beauty
p303
(igamelib.data
SaveData
p304
(dp305
g6
(dp306
S'instance'
p307
(dp308
g10
I01
sg11
F241.52898005390404
sg12
F0.49221289850084377
sg13
I18
sg14
g15
sg16
I01
sg17
(igamelib.math2d
Vector2
p309
(dp310
S'y'
F86.276747503566327
sS'x'
F382.08273894436519
sbsssbba(igamelib.misc
Beauty
p311
(igamelib.data
SaveData
p312
(dp313
g6
(dp314
S'instance'
p315
(dp316
g10
I01
sg11
F296.16441533143774
sg12
F1.9387092916279134
sg13
I18
sg14
g15
sg16
I01
sg17
(igamelib.math2d
Vector2
p317
(dp318
S'y'
F34.921540656205423
sS'x'
F404.67902995720397
sbsssbba(igamelib.misc
Beauty
p319
(igamelib.data
SaveData
p320
(dp321
g6
(dp322
S'instance'
p323
(dp324
g10
I01
sg11
F184.17613136287775
sg12
F0.54273201131040538
sg13
I18
sg14
g15
sg16
I01
sg17
(igamelib.math2d
Vector2
p325
(dp326
S'y'
F60.599144079885875
sS'x'
F599.82881597717551
sbsssbba(igamelib.misc
Beauty
p327
(igamelib.data
SaveData
p328
(dp329
g6
(dp330
S'instance'
p331
(dp332
g10
I01
sg11
F46.849024106588246
sg12
F1.2054403543140912
sg13
I18
sg14
g15
sg16
I01
sg17
(igamelib.math2d
Vector2
p333
(dp334
S'y'
F64.707560627674752
sS'x'
F1091.8116975748931
sbsssbba(igamelib.misc
Beauty
p335
(igamelib.data
SaveData
p336
(dp337
g6
(dp338
S'instance'
p339
(dp340
g10
I01
sg11
F248.07533401427912
sg12
F1.1382449328240232
sg13
I18
sg14
g15
sg16
I01
sg17
(igamelib.math2d
Vector2
p341
(dp342
S'y'
F556.6904422253923
sS'x'
F1079.4864479315263
sbsssbba(igamelib.misc
Beauty
p343
(igamelib.data
SaveData
p344
(dp345
g6
(dp346
S'instance'
p347
(dp348
g10
I01
sg11
F355.43003005942097
sg12
F1.7555145381255823
sg13
I18
sg14
g15
sg16
I01
sg17
(igamelib.math2d
Vector2
p349
(dp350
S'y'
F103.73751783166904
sS'x'
F986.01997146932956
sbsssbba(igamelib.misc
Beauty
p351
(igamelib.data
SaveData
p352
(dp353
g6
(dp354
S'instance'
p355
(dp356
g10
I01
sg11
F108.98144684428694
sg12
F1.5219838795594716
sg13
I18
sg14
g15
sg16
I01
sg17
(igamelib.math2d
Vector2
p357
(dp358
S'y'
F12.325249643366618
sS'x'
F538.20256776034239
sbsssbba(igamelib.misc
Beauty
p359
(igamelib.data
SaveData
p360
(dp361
g6
(dp362
S'instance'
p363
(dp364
g10
I01
sg11
F252.94934404751186
sg12
F1.8875408351685763
sg13
I18
sg14
g15
sg16
I01
sg17
(igamelib.math2d
Vector2
p365
(dp366
S'y'
F98.601997146932945
sS'x'
F320.45649072753207
sbsssbba(igamelib.misc
Markable
p367
(igamelib.data
SaveData
p368
(dp369
g6
(dp370
S'instance'
p371
(dp372
g10
I01
sg11
F-630
sg12
F1
sg13
I10
sg14
S'path_straight.png'
p373
sg16
I01
sg17
(igamelib.math2d
Vector2
p374
(dp375
S'y'
F288
sS'x'
F416
sbsssbba(igamelib.misc
Beauty
p376
(igamelib.data
SaveData
p377
(dp378
g6
(dp379
S'instance'
p380
(dp381
g10
I01
sg11
F38.959508467978154
sg12
F1.5262232412414636
sg13
I18
sg14
g15
sg16
I01
sg17
(igamelib.math2d
Vector2
p382
(dp383
S'y'
F104.91428571428571
sS'x'
F966.85714285714278
sbsssbba(igamelib.misc
Beauty
p384
(igamelib.data
SaveData
p385
(dp386
g6
(dp387
S'instance'
p388
(dp389
g10
I01
sg11
F256.79685382394979
sg12
F0.60476247695801
sg13
I18
sg14
g15
sg16
I01
sg17
(igamelib.math2d
Vector2
p390
(dp391
S'y'
F694.28571428571422
sS'x'
F377.48571428571427
sbsssbba(igamelib.misc
Beauty
p392
(igamelib.data
SaveData
p393
(dp394
g6
(dp395
S'instance'
p396
(dp397
g10
I01
sg11
F198.98013125676758
sg12
F1.0152463191184036
sg13
I18
sg14
g15
sg16
I01
sg17
(igamelib.math2d
Vector2
p398
(dp399
S'y'
F642.9671897289586
sS'x'
F888.44507845934379
sbsssbba(igamelib.misc
Markable
p400
(igamelib.data
SaveData
p401
(dp402
g6
(dp403
S'instance'
p404
(dp405
g10
I01
sg11
F-1080
sg12
F1
sg13
I10
sg14
S'path_straight.png'
p406
sg16
I01
sg17
(igamelib.math2d
Vector2
p407
(dp408
S'y'
F480
sS'x'
F608
sbsssbba(igamelib.misc
Beauty
p409
(igamelib.data
SaveData
p410
(dp411
g6
(dp412
S'instance'
p413
(dp414
g10
I01
sg11
F70.479978495146284
sg12
F0.99695539282276346
sg13
I18
sg14
g15
sg16
I01
sg17
(igamelib.math2d
Vector2
p415
(dp416
S'y'
F631.66904422253924
sS'x'
F994.23680456490729
sbsssbba(igamelib.misc
Markable
p417
(igamelib.data
SaveData
p418
(dp419
g6
(dp420
S'instance'
p421
(dp422
g10
I01
sg11
F-1170
sg12
F1
sg13
I10
sg14
g406
sg16
I01
sg17
(igamelib.math2d
Vector2
p423
(dp424
S'y'
F288
sS'x'
F672
sbsssbba(igamelib.misc
Beauty
p425
(igamelib.data
SaveData
p426
(dp427
g6
(dp428
S'instance'
p429
(dp430
g10
I01
sg11
F204.15483559574511
sg12
F0.65967682998664379
sg13
I18
sg14
g15
sg16
I01
sg17
(igamelib.math2d
Vector2
p431
(dp432
S'y'
F710.74285714285702
sS'x'
F292.1142857142857
sbsssbba(igamelib.misc
Beauty
p433
(igamelib.data
SaveData
p434
(dp435
g6
(dp436
S'instance'
p437
(dp438
g10
I01
sg11
F91.267639854893773
sg12
F1.8991978305187116
sg13
I18
sg14
g15
sg16
I01
sg17
(igamelib.math2d
Vector2
p439
(dp440
S'y'
F583.39514978601994
sS'x'
F325.59201141226816
sbsssbba(igamelib.misc
Beauty
p441
(igamelib.data
SaveData
p442
(dp443
g6
(dp444
S'instance'
p445
(dp446
g10
I01
sg11
F105.80890715240172
sg12
F1.426943882217937
sg13
I18
sg14
g15
sg16
I01
sg17
(igamelib.math2d
Vector2
p447
(dp448
S'y'
F393.94285714285712
sS'x'
F59.657142857142851
sbsssbba(igamelib.misc
Beauty
p449
(igamelib.data
SaveData
p450
(dp451
g6
(dp452
S'instance'
p453
(dp454
g10
I01
sg11
F316.80406408281578
sg12
F1.8605750488887367
sg13
I18
sg14
g15
sg16
I01
sg17
(igamelib.math2d
Vector2
p455
(dp456
S'y'
F22.628571428571426
sS'x'
F28.799999999999997
sbsssbba(igamelib.misc
Beauty
p457
(igamelib.data
SaveData
p458
(dp459
g6
(dp460
S'instance'
p461
(dp462
g10
I01
sg11
F255.94737701949185
sg12
F0.60122718364819328
sg13
I18
sg14
g15
sg16
I01
sg17
(igamelib.math2d
Vector2
p463
(dp464
S'y'
F249.58630527817402
sS'x'
F68.81597717546363
sbsssbba(igamelib.misc
Beauty
p465
(igamelib.data
SaveData
p466
(dp467
g6
(dp468
S'instance'
p469
(dp470
g10
I01
sg11
F272.06282911278242
sg12
F1.3645969357570442
sg13
I18
sg14
g15
sg16
I01
sg17
(igamelib.math2d
Vector2
p471
(dp472
S'y'
F46.219686162624818
sS'x'
F319.4293865905849
sbsssbba(igamelib.misc
Beauty
p473
(igamelib.data
SaveData
p474
(dp475
g6
(dp476
S'instance'
p477
(dp478
g10
I01
sg11
F334.3880237449913
sg12
F1.5611211270853684
sg13
I18
sg14
g15
sg16
I01
sg17
(igamelib.math2d
Vector2
p479
(dp480
S'y'
F490.62857142857138
sS'x'
F46.285714285714278
sbsssbba(igamelib.misc
Beauty
p481
(igamelib.data
SaveData
p482
(dp483
g6
(dp484
S'instance'
p485
(dp486
g10
I01
sg11
F85.096771334403599
sg12
F1.6597426807931182
sg13
I18
sg14
g15
sg16
I01
sg17
(igamelib.math2d
Vector2
p487
(dp488
S'y'
F44.165477888730386
sS'x'
F152.01141226818831
sbsssbba(igamelib.misc
Beauty
p489
(igamelib.data
SaveData
p490
(dp491
g6
(dp492
S'instance'
p493
(dp494
g10
I01
sg11
F105.08278849251936
sg12
F1.0287879979830441
sg13
I18
sg14
g15
sg16
I01
sg17
(igamelib.math2d
Vector2
p495
(dp496
S'y'
F699.45791726105563
sS'x'
F487.87446504992869
sbsssbba(igamelib.misc
Beauty
p497
(igamelib.data
SaveData
p498
(dp499
g6
(dp500
S'instance'
p501
(dp502
g10
I01
sg11
F215.88508222533457
sg12
F0.94802705992611014
sg13
I18
sg14
g15
sg16
I01
sg17
(igamelib.math2d
Vector2
p503
(dp504
S'y'
F408.3428571428571
sS'x'
F1073.8285714285714
sbsssbba(igamelib.misc
Markable
p505
(igamelib.data
SaveData
p506
(dp507
g6
(dp508
S'instance'
p509
(dp510
g10
I01
sg11
F-1080
sg12
F1
sg13
I10
sg14
g406
sg16
I01
sg17
(igamelib.math2d
Vector2
p511
(dp512
S'y'
F544
sS'x'
F608
sbsssbba(igamelib.misc
Beauty
p513
(igamelib.data
SaveData
p514
(dp515
g6
(dp516
S'instance'
p517
(dp518
g10
I01
sg11
F20.609904382202608
sg12
F1.1942576933614923
sg13
I18
sg14
g15
sg16
I01
sg17
(igamelib.math2d
Vector2
p519
(dp520
S'y'
F24.650499286733236
sS'x'
F284.50784593437947
sbsssbba(igamelib.misc
Beauty
p521
(igamelib.data
SaveData
p522
(dp523
g6
(dp524
S'instance'
p525
(dp526
g10
I01
sg11
F98.530496865087287
sg12
F1.2572991256915114
sg13
I18
sg14
g15
sg16
I01
sg17
(igamelib.math2d
Vector2
p527
(dp528
S'y'
F454.62857142857138
sS'x'
F6.1714285714285708
sbsssbba(igamelib.misc
Beauty
p529
(igamelib.data
SaveData
p530
(dp531
g6
(dp532
S'instance'
p533
(dp534
g10
I01
sg11
F187.86638862618341
sg12
F0.72163609131446749
sg13
I18
sg14
g15
sg16
I01
sg17
(igamelib.math2d
Vector2
p535
(dp536
S'y'
F40.057061340941509
sS'x'
F80.114122681883018
sbsssbba(igamelib.misc
Beauty
p537
(igamelib.data
SaveData
p538
(dp539
g6
(dp540
S'instance'
p541
(dp542
g10
I01
sg11
F297.75429352739064
sg12
F1.7661084002891909
sg13
I18
sg14
g15
sg16
I01
sg17
(igamelib.math2d
Vector2
p543
(dp544
S'y'
F400.1142857142857
sS'x'
F294.17142857142852
sbsssbba(igamelib.misc
Markable
p545
(igamelib.data
SaveData
p546
(dp547
g6
(dp548
S'instance'
p549
(dp550
g10
I01
sg11
F-360
sg12
F1
sg13
I10
sg14
S'path_straight.png'
p551
sg16
I01
sg17
(igamelib.math2d
Vector2
p552
(dp553
S'y'
F608
sS'x'
F608
sbsssbba(igamelib.misc
Markable
p554
(igamelib.data
SaveData
p555
(dp556
g6
(dp557
S'instance'
p558
(dp559
g10
I01
sg11
F-1080
sg12
F1
sg13
I10
sg14
g406
sg16
I01
sg17
(igamelib.math2d
Vector2
p560
(dp561
S'y'
F416
sS'x'
F608
sbsssbba(igamelib.misc
Beauty
p562
(igamelib.data
SaveData
p563
(dp564
g6
(dp565
S'instance'
p566
(dp567
g10
I01
sg11
F216.65588912890456
sg12
F1.2835687049077349
sg13
I18
sg14
g15
sg16
I01
sg17
(igamelib.math2d
Vector2
p568
(dp569
S'y'
F55.463623395149789
sS'x'
F1050.7275320970043
sbsssbba(igamelib.misc
Beauty
p570
(igamelib.data
SaveData
p571
(dp572
g6
(dp573
S'instance'
p574
(dp575
g10
I01
sg11
F284.87663760076532
sg12
F1.176025384167914
sg13
I18
sg14
g15
sg16
I01
sg17
(igamelib.math2d
Vector2
p576
(dp577
S'y'
F186.93295292439373
sS'x'
F1002.453637660485
sbsssbba(igamelib.misc
Markable
p578
(igamelib.data
SaveData
p579
(dp580
g6
(dp581
S'instance'
p582
(dp583
g10
I01
sg11
F-1170
sg12
F1
sg13
I10
sg14
g406
sg16
I01
sg17
(igamelib.math2d
Vector2
p584
(dp585
S'y'
F288
sS'x'
F480
sbsssbba(igamelib.misc
Beauty
p586
(igamelib.data
SaveData
p587
(dp588
g6
(dp589
S'instance'
p590
(dp591
g10
I01
sg11
F301.81047489744799
sg12
F1.1392070143791966
sg13
I18
sg14
g15
sg16
I01
sg17
(igamelib.math2d
Vector2
p592
(dp593
S'y'
F639.77142857142849
sS'x'
F255.08571428571426
sbsssbba(igamelib.misc
Markable
p594
(igamelib.data
SaveData
p595
(dp596
g6
(dp597
S'instance'
p598
(dp599
g10
I01
sg11
F-1260
sg12
F1
sg13
I10
sg14
S'path_straight.png'
p600
sg16
I01
sg17
(igamelib.math2d
Vector2
p601
(dp602
S'y'
F352
sS'x'
F608
sbsssbba(igamelib.misc
Beauty
p603
(igamelib.data
SaveData
p604
(dp605
g6
(dp606
S'instance'
p607
(dp608
g10
I01
sg11
F337.75350487949618
sg12
F0.71548617487105692
sg13
I18
sg14
g15
sg16
I01
sg17
(igamelib.math2d
Vector2
p609
(dp610
S'y'
F570.85714285714278
sS'x'
F946.28571428571422
sbsssbba(igamelib.misc
Beauty
p611
(igamelib.data
SaveData
p612
(dp613
g6
(dp614
S'instance'
p615
(dp616
g10
I01
sg11
F83.883919265787469
sg12
F1.3083598353292658
sg13
I18
sg14
g15
sg16
I01
sg17
(igamelib.math2d
Vector2
p617
(dp618
S'y'
F59.572039942938659
sS'x'
F706.64764621968618
sbsssbba(igamelib.misc
Beauty
p619
(igamelib.data
SaveData
p620
(dp621
g6
(dp622
S'instance'
p623
(dp624
g10
I01
sg11
F264.20118448572066
sg12
F1.5623921015895661
sg13
I18
sg14
g15
sg16
I01
sg17
(igamelib.math2d
Vector2
p625
(dp626
S'y'
F80.114122681883018
sS'x'
F200.28530670470755
sbsssbba(igamelib.misc
Beauty
p627
(igamelib.data
SaveData
p628
(dp629
g6
(dp630
S'instance'
p631
(dp632
g10
I01
sg11
F211.14346669060302
sg12
F1.4855589384718861
sg13
I18
sg14
g15
sg16
I01
sg17
(igamelib.math2d
Vector2
p633
(dp634
S'y'
F542.3109843081312
sS'x'
F922.33951497860198
sbsssbba(igamelib.misc
Beauty
p635
(igamelib.data
SaveData
p636
(dp637
g6
(dp638
S'instance'
p639
(dp640
g10
I01
sg11
F301.26226693269973
sg12
F1.893521099440223
sg13
I18
sg14
g15
sg16
I01
sg17
(igamelib.math2d
Vector2
p641
(dp642
S'y'
F667.61768901569189
sS'x'
F383.10984308131242
sbsssbba(igamelib.misc
Beauty
p643
(igamelib.data
SaveData
p644
(dp645
g6
(dp646
S'instance'
p647
(dp648
g10
I01
sg11
F121.32381462429734
sg12
F0.88754702938267638
sg13
I18
sg14
g15
sg16
I01
sg17
(igamelib.math2d
Vector2
p649
(dp650
S'y'
F537.1754636233951
sS'x'
F880.22824536376606
sbsssbba(igamelib.misc
Beauty
p651
(igamelib.data
SaveData
p652
(dp653
g6
(dp654
S'instance'
p655
(dp656
g10
I01
sg11
F128.98419710337151
sg12
F1.5165701157738272
sg13
I18
sg14
g15
sg16
I01
sg17
(igamelib.math2d
Vector2
p657
(dp658
S'y'
F49.300998573466472
sS'x'
F813.46647646219685
sbsssbba(igamelib.misc
Beauty
p659
(igamelib.data
SaveData
p660
(dp661
g6
(dp662
S'instance'
p663
(dp664
g10
I01
sg11
F81.10697038204728
sg12
F1.1713135382183482
sg13
I18
sg14
g15
sg16
I01
sg17
(igamelib.math2d
Vector2
p665
(dp666
S'y'
F508.41654778887306
sS'x'
F804.22253922967184
sbsssbba(igamelib.misc
Beauty
p667
(igamelib.data
SaveData
p668
(dp669
g6
(dp670
S'instance'
p671
(dp672
g10
I01
sg11
F165.5155511898482
sg12
F0.77380742932040025
sg13
I18
sg14
g15
sg16
I01
sg17
(igamelib.math2d
Vector2
p673
(dp674
S'y'
F599.82881597717551
sS'x'
F407.76034236804566
sbsssbba(igamelib.misc
Beauty
p675
(igamelib.data
SaveData
p676
(dp677
g6
(dp678
S'instance'
p679
(dp680
g10
I01
sg11
F15.354249045548571
sg12
F1.8504684141405787
sg13
I18
sg14
g15
sg16
I01
sg17
(igamelib.math2d
Vector2
p681
(dp682
S'y'
F660.34285714285704
sS'x'
F83.314285714285703
sbsssbba(igamelib.misc
Beauty
p683
(igamelib.data
SaveData
p684
(dp685
g6
(dp686
S'instance'
p687
(dp688
g10
I01
sg11
F272.40342046328732
sg12
F1.447897823016403
sg13
I18
sg14
g15
sg16
I01
sg17
(igamelib.math2d
Vector2
p689
(dp690
S'y'
F330.72753209700426
sS'x'
F1068.1883024251069
sbsssbba(igamelib.misc
Beauty
p691
(igamelib.data
SaveData
p692
(dp693
g6
(dp694
S'instance'
p695
(dp696
g10
I01
sg11
F189.3425455459388
sg12
F1.4455636350552237
sg13
I18
sg14
g15
sg16
I01
sg17
(igamelib.math2d
Vector2
p697
(dp698
S'y'
F306.51428571428568
sS'x'
F46.285714285714278
sbsssbba(igamelib.misc
Beauty
p699
(igamelib.data
SaveData
p700
(dp701
g6
(dp702
S'instance'
p703
(dp704
g10
I01
sg11
F40.00568811100095
sg12
F0.50982615283836807
sg13
I18
sg14
g15
sg16
I01
sg17
(igamelib.math2d
Vector2
p705
(dp706
S'y'
F195.42857142857142
sS'x'
F1060.4571428571428
sbsssbba(igamelib.misc
Beauty
p707
(igamelib.data
SaveData
p708
(dp709
g6
(dp710
S'instance'
p711
(dp712
g10
I01
sg11
F348.74471568741131
sg12
F0.77050816695545343
sg13
I18
sg14
g15
sg16
I01
sg17
(igamelib.math2d
Vector2
p713
(dp714
S'y'
F714.85714285714278
sS'x'
F811.54285714285709
sbsssbba(igamelib.buildings
HQ
p715
(igamelib.data
SaveData
p716
(dp717
g6
(dp718
S'instance'
p719
(dp720
g10
I01
sg17
(igamelib.math2d
Vector2
p721
(dp722
S'y'
F672
sS'x'
F608
sbsg11
F-360
sg16
I01
sssbba(igamelib.misc
Beauty
p723
(igamelib.data
SaveData
p724
(dp725
g6
(dp726
S'instance'
p727
(dp728
g10
I01
sg11
F261.92486832469422
sg12
F0.64507925992275472
sg13
I18
sg14
g15
sg16
I01
sg17
(igamelib.math2d
Vector2
p729
(dp730
S'y'
F173.82857142857142
sS'x'
F61.714285714285708
sbsssbba(igamelib.misc
Beauty
p731
(igamelib.data
SaveData
p732
(dp733
g6
(dp734
S'instance'
p735
(dp736
g10
I01
sg11
F39.352842156245508
sg12
F0.55727454203676974
sg13
I18
sg14
g15
sg16
I01
sg17
(igamelib.math2d
Vector2
p737
(dp738
S'y'
F442.68188302425108
sS'x'
F1007.5891583452211
sbsssbba(igamelib.misc
Beauty
p739
(igamelib.data
SaveData
p740
(dp741
g6
(dp742
S'instance'
p743
(dp744
g10
I01
sg11
F179.82642573678987
sg12
F0.95424135852389558
sg13
I18
sg14
g15
sg16
I01
sg17
(igamelib.math2d
Vector2
p745
(dp746
S'y'
F122.22539229671897
sS'x'
F1073.323823109843
sbsssbba(igamelib.misc
Beauty
p747
(igamelib.data
SaveData
p748
(dp749
g6
(dp750
S'instance'
p751
(dp752
g10
I01
sg11
F246.26621589689287
sg12
F1.0134815675193212
sg13
I18
sg14
g15
sg16
I01
sg17
(igamelib.math2d
Vector2
p753
(dp754
S'y'
F169.71428571428569
sS'x'
F51.428571428571423
sbsssbba(igamelib.towers
Bunker
p755
(igamelib.data
SaveData
p756
(dp757
g6
(dp758
S'instance'
p759
(dp760
g10
I01
sg17
(igamelib.math2d
Vector2
p761
(dp762
S'y'
F416
sS'x'
F672
sbsg11
F-1192.5
sg16
I01
sssbba(igamelib.misc
Beauty
p763
(igamelib.data
SaveData
p764
(dp765
g6
(dp766
S'instance'
p767
(dp768
g10
I01
sg11
F268.04804623444932
sg12
F0.94089557308370386
sg13
I18
sg14
g15
sg16
I01
sg17
(igamelib.math2d
Vector2
p769
(dp770
S'y'
F525.87731811697574
sS'x'
F-2.0542082738944365
sbsssbba(igamelib.misc
Markable
p771
(igamelib.data
SaveData
p772
(dp773
g6
(dp774
S'instance'
p775
(dp776
g10
I01
sg11
F-1170
sg12
F1
sg13
I10
sg14
g406
sg16
I01
sg17
(igamelib.math2d
Vector2
p777
(dp778
S'y'
F288
sS'x'
F736
sbsssbba(igamelib.misc
Beauty
p779
(igamelib.data
SaveData
p780
(dp781
g6
(dp782
S'instance'
p783
(dp784
g10
I01
sg11
F114.07161074115511
sg12
F1.3911322296009569
sg13
I18
sg14
g15
sg16
I01
sg17
(igamelib.math2d
Vector2
p785
(dp786
S'y'
F95.657142857142844
sS'x'
F213.94285714285712
sbsssbba(igamelib.misc
Beauty
p787
(igamelib.data
SaveData
p788
(dp789
g6
(dp790
S'instance'
p791
(dp792
g10
I01
sg11
F155.73956524494014
sg12
F0.99701638496176348
sg13
I18
sg14
g15
sg16
I01
sg17
(igamelib.math2d
Vector2
p793
(dp794
S'y'
F676.79999999999995
sS'x'
F276.68571428571425
sbsssbba(igamelib.misc
Beauty
p795
(igamelib.data
SaveData
p796
(dp797
g6
(dp798
S'instance'
p799
(dp800
g10
I01
sg11
F292.73777824899014
sg12
F0.81068124184254486
sg13
I18
sg14
g15
sg16
I01
sg17
(igamelib.math2d
Vector2
p801
(dp802
S'y'
F724.11428571428564
sS'x'
F50.399999999999991
sbsssbba(igamelib.misc
Beauty
p803
(igamelib.data
SaveData
p804
(dp805
g6
(dp806
S'instance'
p807
(dp808
g10
I01
sg11
F245.99596693848582
sg12
F1.0759403310538413
sg13
I18
sg14
g15
sg16
I01
sg17
(igamelib.math2d
Vector2
p809
(dp810
S'y'
F712.79999999999995
sS'x'
F415.54285714285709
sbsssbba(igamelib.misc
Beauty
p811
(igamelib.data
SaveData
p812
(dp813
g6
(dp814
S'instance'
p815
(dp816
g10
I01
sg11
F317.93956913619638
sg12
F1.3329530180833025
sg13
I18
sg14
g15
sg16
I01
sg17
(igamelib.math2d
Vector2
p817
(dp818
S'y'
F251.99999999999997
sS'x'
F81.257142857142853
sbsssbba(igamelib.misc
Beauty
p819
(igamelib.data
SaveData
p820
(dp821
g6
(dp822
S'instance'
p823
(dp824
g10
I01
sg11
F268.00481966697646
sg12
F1.0041920629535861
sg13
I18
sg14
g15
sg16
I01
sg17
(igamelib.math2d
Vector2
p825
(dp826
S'y'
F693.29529243937236
sS'x'
F853.52353780313831
sbsssbba(igamelib.misc
Beauty
p827
(igamelib.data
SaveData
p828
(dp829
g6
(dp830
S'instance'
p831
(dp832
g10
I01
sg11
F100.61129018633933
sg12
F1.2634598289477916
sg13
I18
sg14
g15
sg16
I01
sg17
(igamelib.math2d
Vector2
p833
(dp834
S'y'
F125.48571428571427
sS'x'
F153.25714285714284
sbsssbba(igamelib.misc
Beauty
p835
(igamelib.data
SaveData
p836
(dp837
g6
(dp838
S'instance'
p839
(dp840
g10
I01
sg11
F286.14814621896176
sg12
F1.2030277021690878
sg13
I18
sg14
g15
sg16
I01
sg17
(igamelib.math2d
Vector2
p841
(dp842
S'y'
F21.599999999999998
sS'x'
F19.542857142857141
sbsssbba(igamelib.misc
Markable
p843
(igamelib.data
SaveData
p844
(dp845
g6
(dp846
S'instance'
p847
(dp848
g10
I01
sg11
F-1170
sg12
F1
sg13
I10
sg14
g406
sg16
I01
sg17
(igamelib.math2d
Vector2
p849
(dp850
S'y'
F288
sS'x'
F544
sbsssbba(igamelib.misc
Beauty
p851
(igamelib.data
SaveData
p852
(dp853
g6
(dp854
S'instance'
p855
(dp856
g10
I01
sg11
F33.701372769188275
sg12
F1.0843622002749282
sg13
I18
sg14
g15
sg16
I01
sg17
(igamelib.math2d
Vector2
p857
(dp858
S'y'
F6.1626248216833091
sS'x'
F1010.6704707560627
sbsssbba(igamelib.misc
Beauty
p859
(igamelib.data
SaveData
p860
(dp861
g6
(dp862
S'instance'
p863
(dp864
g10
I01
sg11
F320.05222224612618
sg12
F1.6367682075403407
sg13
I18
sg14
g15
sg16
I01
sg17
(igamelib.math2d
Vector2
p865
(dp866
S'y'
F687.08571428571418
sS'x'
F157.37142857142857
sbsssbba(igamelib.misc
Beauty
p867
(igamelib.data
SaveData
p868
(dp869
g6
(dp870
S'instance'
p871
(dp872
g10
I01
sg11
F115.04441259352419
sg12
F1.28090061381233
sg13
I18
sg14
g15
sg16
I01
sg17
(igamelib.math2d
Vector2
p873
(dp874
S'y'
F567.77142857142849
sS'x'
F253.02857142857141
sbsssbba(igamelib.misc
Beauty
p875
(igamelib.data
SaveData
p876
(dp877
g6
(dp878
S'instance'
p879
(dp880
g10
I01
sg11
F34.613233648122105
sg12
F0.61392098215729596
sg13
I18
sg14
g15
sg16
I01
sg17
(igamelib.math2d
Vector2
p881
(dp882
S'y'
F106.8188302425107
sS'x'
F422.13980028530671
sbsssbba(igamelib.misc
Beauty
p883
(igamelib.data
SaveData
p884
(dp885
g6
(dp886
S'instance'
p887
(dp888
g10
I01
sg11
F288.59667966790624
sg12
F1.1833022751646094
sg13
I18
sg14
g15
sg16
I01
sg17
(igamelib.math2d
Vector2
p889
(dp890
S'y'
F199.25820256776035
sS'x'
F1031.2125534950071
sbsssbba(igamelib.misc
Beauty
p891
(igamelib.data
SaveData
p892
(dp893
g6
(dp894
S'instance'
p895
(dp896
g10
I01
sg11
F271.26157728046286
sg12
F1.8016565945315171
sg13
I18
sg14
g15
sg16
I01
sg17
(igamelib.math2d
Vector2
p897
(dp898
S'y'
F190.28571428571428
sS'x'
F47.31428571428571
sbsssbba(igamelib.misc
Beauty
p899
(igamelib.data
SaveData
p900
(dp901
g6
(dp902
S'instance'
p903
(dp904
g10
I01
sg11
F238.28201086540639
sg12
F1.7456773971711363
sg13
I18
sg14
g15
sg16
I01
sg17
(igamelib.math2d
Vector2
p905
(dp906
S'y'
F658.28571428571422
sS'x'
F224.2285714285714
sbsssbba(igamelib.misc
Beauty
p907
(igamelib.data
SaveData
p908
(dp909
g6
(dp910
S'instance'
p911
(dp912
g10
I01
sg11
F14.611282913611854
sg12
F1.2682622331323059
sg13
I18
sg14
g15
sg16
I01
sg17
(igamelib.math2d
Vector2
p913
(dp914
S'y'
F688.11428571428564
sS'x'
F34.971428571428568
sbsssbba(igamelib.misc
Beauty
p915
(igamelib.data
SaveData
p916
(dp917
g6
(dp918
S'instance'
p919
(dp920
g10
I01
sg11
F197.71194409618158
sg12
F1.0858818647657771
sg13
I18
sg14
g15
sg16
I01
sg17
(igamelib.math2d
Vector2
p921
(dp922
S'y'
F656.31954350927242
sS'x'
F1031.2125534950071
sbsssbba(igamelib.misc
Beauty
p923
(igamelib.data
SaveData
p924
(dp925
g6
(dp926
S'instance'
p927
(dp928
g10
I01
sg11
F217.39254712530825
sg12
F1.1210643158313465
sg13
I18
sg14
g15
sg16
I01
sg17
(igamelib.math2d
Vector2
p929
(dp930
S'y'
F486.84736091298146
sS'x'
F1024.0228245363767
sbsssbba(igamelib.buildings
Orphanage
p931
(igamelib.data
SaveData
p932
(dp933
g6
(dp934
S'instance'
p935
(dp936
g10
I01
sg267
(igamelib.pathfinding
Path
p937
(igamelib.data
SaveData
p938
(dp939
g6
(dp940
S'instance'
p941
(dp942
g10
I01
sg274
(igamelib.pathfinding
Waypoint
p943
(igamelib.data
SaveData
p944
(dp945
g6
(dp946
S'instance'
p947
(dp948
g281
Nsg282
(igamelib.pathfinding
Waypoint
p949
(igamelib.data
SaveData
p950
(dp951
g6
(dp952
S'instance'
p953
(dp954
g281
g943
sg282
(igamelib.pathfinding
Waypoint
p955
(igamelib.data
SaveData
p956
(dp957
g6
(dp958
S'instance'
p959
(dp960
g281
g949
sg282
(igamelib.pathfinding
Waypoint
p961
(igamelib.data
SaveData
p962
(dp963
g6
(dp964
S'instance'
p965
(dp966
g281
g955
sg282
(igamelib.pathfinding
Waypoint
p967
(igamelib.data
SaveData
p968
(dp969
g6
(dp970
S'instance'
p971
(dp972
g281
g961
sg282
Nsg17
(igamelib.math2d
Vector2
p973
(dp974
S'y'
F630
sS'x'
F609
sbsssbbsg17
(igamelib.math2d
Vector2
p975
(dp976
S'y'
F290
sS'x'
F609
sbsssbbsg17
(igamelib.math2d
Vector2
p977
(dp978
S'y'
F289
sS'x'
F470
sbsssbbsg17
(igamelib.math2d
Vector2
p979
(dp980
S'y'
F303.9822024471635
sS'x'
F439.95550611790878
sbsssbbsg17
(igamelib.math2d
Vector2
p981
(dp982
S'y'
F278.35372636262514
sS'x'
F432.12458286985543
sbsssbbsg16
I00
sssbbsg17
(igamelib.math2d
Vector2
p983
(dp984
S'y'
F288
sS'x'
F416
sbsg11
F-1080
sg16
I01
sssbba(igamelib.misc
Beauty
p985
(igamelib.data
SaveData
p986
(dp987
g6
(dp988
S'instance'
p989
(dp990
g10
I01
sg11
F13.765746429194184
sg12
F1.5666447985526035
sg13
I18
sg14
g15
sg16
I01
sg17
(igamelib.math2d
Vector2
p991
(dp992
S'y'
F107.84593437945792
sS'x'
F34.921540656205423
sbsssbba(igamelib.misc
Beauty
p993
(igamelib.data
SaveData
p994
(dp995
g6
(dp996
S'instance'
p997
(dp998
g10
I01
sg11
F129.2614587754658
sg12
F0.94039511510100349
sg13
I18
sg14
g15
sg16
I01
sg17
(igamelib.math2d
Vector2
p999
(dp1000
S'y'
F57.51783166904422
sS'x'
F692.26818830242507
sbsssbba(igamelib.misc
Beauty
p1001
(igamelib.data
SaveData
p1002
(dp1003
g6
(dp1004
S'instance'
p1005
(dp1006
g10
I01
sg11
F50.211457302330771
sg12
F1.2923587749917245
sg13
I18
sg14
g15
sg16
I01
sg17
(igamelib.math2d
Vector2
p1007
(dp1008
S'y'
F713.82857142857131
sS'x'
F1010.0571428571427
sbsssbba(igamelib.misc
Beauty
p1009
(igamelib.data
SaveData
p1010
(dp1011
g6
(dp1012
S'instance'
p1013
(dp1014
g10
I01
sg11
F300.6940510658751
sg12
F1.7829321907059454
sg13
I18
sg14
g15
sg16
I01
sg17
(igamelib.math2d
Vector2
p1015
(dp1016
S'y'
F115.03566333808844
sS'x'
F726.16262482168327
sbsssbba(igamelib.misc
Beauty
p1017
(igamelib.data
SaveData
p1018
(dp1019
g6
(dp1020
S'instance'
p1021
(dp1022
g10
I01
sg11
F68.513391613600632
sg12
F1.4939352336400331
sg13
I18
sg14
g15
sg16
I01
sg17
(igamelib.math2d
Vector2
p1023
(dp1024
S'y'
F56.490727532097004
sS'x'
F571.0699001426533
sbsssbba(igamelib.misc
Beauty
p1025
(igamelib.data
SaveData
p1026
(dp1027
g6
(dp1028
S'instance'
p1029
(dp1030
g10
I01
sg11
F164.0961981656246
sg12
F1.2998783135775296
sg13
I18
sg14
g15
sg16
I01
sg17
(igamelib.math2d
Vector2
p1031
(dp1032
S'y'
F43.138373751783163
sS'x'
F428.30242510699003
sbsssbba(igamelib.misc
Beauty
p1033
(igamelib.data
SaveData
p1034
(dp1035
g6
(dp1036
S'instance'
p1037
(dp1038
g10
I01
sg11
F282.47773509973814
sg12
F0.77439516997488389
sg13
I18
sg14
g15
sg16
I01
sg17
(igamelib.math2d
Vector2
p1039
(dp1040
S'y'
F260.2285714285714
sS'x'
F45.257142857142853
sbsssbba(igamelib.misc
Beauty
p1041
(igamelib.data
SaveData
p1042
(dp1043
g6
(dp1044
S'instance'
p1045
(dp1046
g10
I01
sg11
F215.2844369241117
sg12
F1.764335226432465
sg13
I18
sg14
g15
sg16
I01
sg17
(igamelib.math2d
Vector2
p1047
(dp1048
S'y'
F284.50784593437947
sS'x'
F1010.6704707560627
sbsssbba(igamelib.towers
Tank
p1049
(igamelib.data
SaveData
p1050
(dp1051
g6
(dp1052
S'instance'
p1053
(dp1054
g10
I01
sg17
(igamelib.math2d
Vector2
p1055
(dp1056
S'y'
F480
sS'x'
F672
sbsg11
F-1237.5
sg16
I01
sssbba(igamelib.misc
Beauty
p1057
(igamelib.data
SaveData
p1058
(dp1059
g6
(dp1060
S'instance'
p1061
(dp1062
g10
I01
sg11
F53.765903370053628
sg12
F1.877924962063475
sg13
I18
sg14
g15
sg16
I01
sg17
(igamelib.math2d
Vector2
p1063
(dp1064
S'y'
F92.439372325249636
sS'x'
F639.88587731811697
sbsssbba(igamelib.misc
Beauty
p1065
(igamelib.data
SaveData
p1066
(dp1067
g6
(dp1068
S'instance'
p1069
(dp1070
g10
I01
sg11
F294.05689583481427
sg12
F0.61950065048842595
sg13
I18
sg14
g15
sg16
I01
sg17
(igamelib.math2d
Vector2
p1071
(dp1072
S'y'
F54.514285714285705
sS'x'
F811.54285714285709
sbsssbbatRp1073
.