c__builtin__
set
p1
((lp2
(igamelib.misc
Beauty
p3
(igamelib.data
SaveData
p4
(dp5
S'classes'
p6
(dp7
S'instance'
p8
(dp9
S'__visible'
p10
I01
sS'_rotation'
p11
F162.42856273030671
sS'_Scale'
p12
F1.0135134005401374
sS'_z_index'
p13
I18
sS'_TextureName'
p14
S'deco_tree.png'
p15
sS'__renderCallback'
p16
I01
sS'_position'
p17
(igamelib.math2d
Vector2
p18
(dp19
S'y'
F557.48571428571427
sS'x'
F91.54285714285713
sbsssbba(igamelib.misc
Beauty
p20
(igamelib.data
SaveData
p21
(dp22
g6
(dp23
S'instance'
p24
(dp25
g10
I01
sg11
F119.55405203660904
sg12
F1.8562835861773308
sg13
I18
sg14
g15
sg16
I01
sg17
(igamelib.math2d
Vector2
p26
(dp27
S'y'
F55.542857142857137
sS'x'
F139.88571428571427
sbsssbba(igamelib.misc
Markable
p28
(igamelib.data
SaveData
p29
(dp30
g6
(dp31
S'instance'
p32
(dp33
g10
I01
sg11
F-90
sg12
F1
sg13
I10
sg14
S'path_straight.png'
p34
sg16
I01
sg17
(igamelib.math2d
Vector2
p35
(dp36
S'y'
F224
sS'x'
F864
sbsssbba(igamelib.misc
Beauty
p37
(igamelib.data
SaveData
p38
(dp39
g6
(dp40
S'instance'
p41
(dp42
g10
I01
sg11
F55.713155833048383
sg12
F1.5203655275056991
sg13
I18
sg14
g15
sg16
I01
sg17
(igamelib.math2d
Vector2
p43
(dp44
S'y'
F145.02857142857141
sS'x'
F85.371428571428567
sbsssbba(igamelib.misc
Markable
p45
(igamelib.data
SaveData
p46
(dp47
g6
(dp48
S'instance'
p49
(dp50
g10
I01
sg11
F-990
sg12
F1
sg13
I10
sg14
S'path_straight.png'
p51
sg16
I01
sg17
(igamelib.math2d
Vector2
p52
(dp53
S'y'
F224
sS'x'
F800
sbsssbba(igamelib.misc
Markable
p54
(igamelib.data
SaveData
p55
(dp56
g6
(dp57
S'instance'
p58
(dp59
g10
I01
sg11
F-270
sg12
F1
sg13
I10
sg14
g51
sg16
I01
sg17
(igamelib.math2d
Vector2
p60
(dp61
S'y'
F224
sS'x'
F672
sbsssbba(igamelib.misc
Beauty
p62
(igamelib.data
SaveData
p63
(dp64
g6
(dp65
S'instance'
p66
(dp67
g10
I01
sg11
F313.28932551867393
sg12
F0.95839919143277519
sg13
I18
sg14
g15
sg16
I01
sg17
(igamelib.math2d
Vector2
p68
(dp69
S'y'
F316.79999999999995
sS'x'
F116.22857142857141
sbsssbba(igamelib.misc
Beauty
p70
(igamelib.data
SaveData
p71
(dp72
g6
(dp73
S'instance'
p74
(dp75
g10
I01
sg11
F109.07140351628742
sg12
F0.5461124142160001
sg13
I18
sg14
g15
sg16
I01
sg17
(igamelib.math2d
Vector2
p76
(dp77
S'y'
F627.42857142857133
sS'x'
F103.88571428571427
sbsssbba(igamelib.misc
Beauty
p78
(igamelib.data
SaveData
p79
(dp80
g6
(dp81
S'instance'
p82
(dp83
g10
I01
sg11
F112.9030375095043
sg12
F0.53459473488017917
sg13
I18
sg14
g15
sg16
I01
sg17
(igamelib.math2d
Vector2
p84
(dp85
S'y'
F149.14285714285714
sS'x'
F4.1142857142857139
sbsssbba(igamelib.misc
Markable
p86
(igamelib.data
SaveData
p87
(dp88
g6
(dp89
S'instance'
p90
(dp91
g10
I01
sg11
F-540
sg12
F1
sg13
I10
sg14
S'path_T.png'
p92
sg16
I01
sg17
(igamelib.math2d
Vector2
p93
(dp94
S'y'
F224
sS'x'
F480
sbsssbba(igamelib.misc
Markable
p95
(igamelib.data
SaveData
p96
(dp97
g6
(dp98
S'instance'
p99
(dp100
g10
I01
sg11
F0
sg12
F1
sg13
I10
sg14
S'path_corner.png'
p101
sg16
I01
sg17
(igamelib.math2d
Vector2
p102
(dp103
S'y'
F544
sS'x'
F736
sbsssbba(igamelib.misc
Beauty
p104
(igamelib.data
SaveData
p105
(dp106
g6
(dp107
S'instance'
p108
(dp109
g10
I01
sg11
F59.618645732333967
sg12
F1.0255738983372997
sg13
I18
sg14
g15
sg16
I01
sg17
(igamelib.math2d
Vector2
p110
(dp111
S'y'
F117.25714285714284
sS'x'
F48.342857142857142
sbsssbba(igamelib.towers
Tank
p112
(igamelib.data
SaveData
p113
(dp114
g6
(dp115
S'instance'
p116
(dp117
g10
I01
sg17
(igamelib.math2d
Vector2
p118
(dp119
S'y'
F288
sS'x'
F672
sbsg11
F-270
sg16
I01
sssbba(igamelib.misc
Beauty
p120
(igamelib.data
SaveData
p121
(dp122
g6
(dp123
S'instance'
p124
(dp125
g10
I01
sg11
F78.030233869397094
sg12
F1.3583207778392588
sg13
I18
sg14
g15
sg16
I01
sg17
(igamelib.math2d
Vector2
p126
(dp127
S'y'
F128.57142857142856
sS'x'
F135.77142857142854
sbsssbba(igamelib.misc
Beauty
p128
(igamelib.data
SaveData
p129
(dp130
g6
(dp131
S'instance'
p132
(dp133
g10
I01
sg11
F166.37270517770281
sg12
F1.8205518139495025
sg13
I18
sg14
g15
sg16
I01
sg17
(igamelib.math2d
Vector2
p134
(dp135
S'y'
F484.4571428571428
sS'x'
F165.59999999999999
sbsssbba(igamelib.misc
Markable
p136
(igamelib.data
SaveData
p137
(dp138
g6
(dp139
S'instance'
p140
(dp141
g10
I01
sg11
F-270
sg12
F1
sg13
I10
sg14
g51
sg16
I01
sg17
(igamelib.math2d
Vector2
p142
(dp143
S'y'
F224
sS'x'
F608
sbsssbba(igamelib.misc
Beauty
p144
(igamelib.data
SaveData
p145
(dp146
g6
(dp147
S'instance'
p148
(dp149
g10
I01
sg11
F266.75420769129954
sg12
F1.1434766866655921
sg13
I18
sg14
g15
sg16
I01
sg17
(igamelib.math2d
Vector2
p150
(dp151
S'y'
F21.599999999999998
sS'x'
F263.31428571428569
sbsssbba(igamelib.misc
Beauty
p152
(igamelib.data
SaveData
p153
(dp154
g6
(dp155
S'instance'
p156
(dp157
g10
I01
sg11
F194.85835163138597
sg12
F1.735337810488357
sg13
I18
sg14
g15
sg16
I01
sg17
(igamelib.math2d
Vector2
p158
(dp159
S'y'
F568.79999999999995
sS'x'
F172.79999999999998
sbsssbba(igamelib.misc
Markable
p160
(igamelib.data
SaveData
p161
(dp162
g6
(dp163
S'instance'
p164
(dp165
g10
I01
sg11
F-270
sg12
F1
sg13
I10
sg14
g51
sg16
I01
sg17
(igamelib.math2d
Vector2
p166
(dp167
S'y'
F224
sS'x'
F544
sbsssbba(igamelib.misc
Beauty
p168
(igamelib.data
SaveData
p169
(dp170
g6
(dp171
S'instance'
p172
(dp173
g10
I01
sg11
F176.42983732950509
sg12
F1.4572495038018947
sg13
I18
sg14
g15
sg16
I01
sg17
(igamelib.math2d
Vector2
p174
(dp175
S'y'
F499.88571428571424
sS'x'
F114.17142857142856
sbsssbba(igamelib.misc
Markable
p176
(igamelib.data
SaveData
p177
(dp178
g6
(dp179
S'instance'
p180
(dp181
g10
I01
sg11
F-900
sg12
F1
sg13
I10
sg14
g92
sg16
I01
sg17
(igamelib.math2d
Vector2
p182
(dp183
S'y'
F224
sS'x'
F736
sbsssbba(igamelib.misc
Beauty
p184
(igamelib.data
SaveData
p185
(dp186
g6
(dp187
S'instance'
p188
(dp189
g10
I01
sg11
F261.43613742158794
sg12
F1.7232041166031777
sg13
I18
sg14
g15
sg16
I01
sg17
(igamelib.math2d
Vector2
p190
(dp191
S'y'
F5.1428571428571423
sS'x'
F578.05714285714282
sbsssbba(igamelib.misc
Beauty
p192
(igamelib.data
SaveData
p193
(dp194
g6
(dp195
S'instance'
p196
(dp197
g10
I01
sg11
F229.73150131511827
sg12
F1.3111828539538721
sg13
I18
sg14
g15
sg16
I01
sg17
(igamelib.math2d
Vector2
p198
(dp199
S'y'
F697.37142857142851
sS'x'
F91.54285714285713
sbsssbba(igamelib.misc
Beauty
p200
(igamelib.data
SaveData
p201
(dp202
g6
(dp203
S'instance'
p204
(dp205
g10
I01
sg11
F6.889608220522959
sg12
F1.7168126787141074
sg13
I18
sg14
g15
sg16
I01
sg17
(igamelib.math2d
Vector2
p206
(dp207
S'y'
F36
sS'x'
F767.31428571428569
sbsssbba(igamelib.misc
Beauty
p208
(igamelib.data
SaveData
p209
(dp210
g6
(dp211
S'instance'
p212
(dp213
g10
I01
sg11
F339.41725571737538
sg12
F1.2368407297187638
sg13
I18
sg14
g15
sg16
I01
sg17
(igamelib.math2d
Vector2
p214
(dp215
S'y'
F626.39999999999998
sS'x'
F256.1142857142857
sbsssbba(igamelib.buildings
Orphanage
p216
(igamelib.data
SaveData
p217
(dp218
g6
(dp219
S'instance'
p220
(dp221
g10
I01
sS'path'
p222
(igamelib.pathfinding
Path
p223
(igamelib.data
SaveData
p224
(dp225
g6
(dp226
S'instance'
p227
(dp228
g10
I01
sS'_Start'
p229
(igamelib.pathfinding
Waypoint
p230
(igamelib.data
SaveData
p231
(dp232
g6
(dp233
S'instance'
p234
(dp235
S'_previous'
p236
NsS'_next'
p237
(igamelib.pathfinding
Waypoint
p238
(igamelib.data
SaveData
p239
(dp240
g6
(dp241
S'instance'
p242
(dp243
g236
g230
sg237
(igamelib.pathfinding
Waypoint
p244
(igamelib.data
SaveData
p245
(dp246
g6
(dp247
S'instance'
p248
(dp249
g236
g238
sg237
(igamelib.pathfinding
Waypoint
p250
(igamelib.data
SaveData
p251
(dp252
g6
(dp253
S'instance'
p254
(dp255
g236
g244
sg237
(igamelib.pathfinding
Waypoint
p256
(igamelib.data
SaveData
p257
(dp258
g6
(dp259
S'instance'
p260
(dp261
g236
g250
sg237
(igamelib.pathfinding
Waypoint
p262
(igamelib.data
SaveData
p263
(dp264
g6
(dp265
S'instance'
p266
(dp267
g236
g256
sg237
(igamelib.pathfinding
Waypoint
p268
(igamelib.data
SaveData
p269
(dp270
g6
(dp271
S'instance'
p272
(dp273
g236
g262
sg237
Nsg17
(igamelib.math2d
Vector2
p274
(dp275
S'y'
F545
sS'x'
F949
sbsssbbsg17
(igamelib.math2d
Vector2
p276
(dp277
S'y'
F546
sS'x'
F736
sbsssbbsg17
(igamelib.math2d
Vector2
p278
(dp279
S'y'
F225
sS'x'
F736
sbsssbbsg17
(igamelib.math2d
Vector2
p280
(dp281
S'y'
F224
sS'x'
F479
sbsssbbsg17
(igamelib.math2d
Vector2
p282
(dp283
S'y'
F406
sS'x'
F479
sbsssbbsg17
(igamelib.math2d
Vector2
p284
(dp285
S'y'
F402
sS'x'
F522
sbsssbbsg17
(igamelib.math2d
Vector2
p286
(dp287
S'y'
F432
sS'x'
F528
sbsssbbsg16
I00
sssbbsg17
(igamelib.math2d
Vector2
p288
(dp289
S'y'
F416
sS'x'
F544
sbsg11
F-900
sg16
I01
sssbba(igamelib.misc
Beauty
p290
(igamelib.data
SaveData
p291
(dp292
g6
(dp293
S'instance'
p294
(dp295
g10
I01
sg11
F265.70146213162752
sg12
F1.5138080975352313
sg13
I18
sg14
g15
sg16
I01
sg17
(igamelib.math2d
Vector2
p296
(dp297
S'y'
F702.51428571428562
sS'x'
F911.31428571428557
sbsssbba(igamelib.towers
Tank
p298
(igamelib.data
SaveData
p299
(dp300
g6
(dp301
S'instance'
p302
(dp303
g10
I01
sg17
(igamelib.math2d
Vector2
p304
(dp305
S'y'
F416
sS'x'
F800
sbsg11
F-157.5
sg16
I01
sssbba(igamelib.misc
Beauty
p306
(igamelib.data
SaveData
p307
(dp308
g6
(dp309
S'instance'
p310
(dp311
g10
I01
sg11
F57.063394834428045
sg12
F0.61810369129130671
sg13
I18
sg14
g15
sg16
I01
sg17
(igamelib.math2d
Vector2
p312
(dp313
S'y'
F203.65714285714284
sS'x'
F133.71428571428569
sbsssbba(igamelib.towers
Tank
p314
(igamelib.data
SaveData
p315
(dp316
g6
(dp317
S'instance'
p318
(dp319
g10
I01
sg17
(igamelib.math2d
Vector2
p320
(dp321
S'y'
F160
sS'x'
F608
sbsg11
F-450
sg16
I01
sssbba(igamelib.misc
Beauty
p322
(igamelib.data
SaveData
p323
(dp324
g6
(dp325
S'instance'
p326
(dp327
g10
I01
sg11
F48.931570064326721
sg12
F1.262790706708812
sg13
I18
sg14
g15
sg16
I01
sg17
(igamelib.math2d
Vector2
p328
(dp329
S'y'
F239.65714285714284
sS'x'
F150.17142857142855
sbsssbba(igamelib.buildings
HQ
p330
(igamelib.data
SaveData
p331
(dp332
g6
(dp333
S'instance'
p334
(dp335
g10
I01
sg17
(igamelib.math2d
Vector2
p336
(dp337
S'y'
F544
sS'x'
F992
sbsg11
F-270
sg16
I01
sssbba(igamelib.misc
Beauty
p338
(igamelib.data
SaveData
p339
(dp340
g6
(dp341
S'instance'
p342
(dp343
g10
I01
sg11
F296.15335097483461
sg12
F0.52817581537035641
sg13
I18
sg14
g15
sg16
I01
sg17
(igamelib.math2d
Vector2
p344
(dp345
S'y'
F515.31428571428569
sS'x'
F112.1142857142857
sbsssbba(igamelib.misc
Markable
p346
(igamelib.data
SaveData
p347
(dp348
g6
(dp349
S'instance'
p350
(dp351
g10
I01
sg11
F-810
sg12
F1
sg13
I10
sg14
g51
sg16
I01
sg17
(igamelib.math2d
Vector2
p352
(dp353
S'y'
F416
sS'x'
F544
sbsssbba(igamelib.misc
Markable
p354
(igamelib.data
SaveData
p355
(dp356
g6
(dp357
S'instance'
p358
(dp359
g10
I01
sg11
F0
sg12
F1
sg13
I10
sg14
g51
sg16
I01
sg17
(igamelib.math2d
Vector2
p360
(dp361
S'y'
F416
sS'x'
F736
sbsssbba(igamelib.misc
Markable
p362
(igamelib.data
SaveData
p363
(dp364
g6
(dp365
S'instance'
p366
(dp367
g10
I01
sg11
F-270
sg12
F1
sg13
I10
sg14
S'path_straight.png'
p368
sg16
I01
sg17
(igamelib.math2d
Vector2
p369
(dp370
S'y'
F544
sS'x'
F800
sbsssbba(igamelib.misc
Markable
p371
(igamelib.data
SaveData
p372
(dp373
g6
(dp374
S'instance'
p375
(dp376
g10
I01
sg11
F-540
sg12
F1
sg13
I10
sg14
g51
sg16
I01
sg17
(igamelib.math2d
Vector2
p377
(dp378
S'y'
F352
sS'x'
F480
sbsssbba(igamelib.misc
Beauty
p379
(igamelib.data
SaveData
p380
(dp381
g6
(dp382
S'instance'
p383
(dp384
g10
I01
sg11
F217.33503837050907
sg12
F0.81301792379089632
sg13
I18
sg14
g15
sg16
I01
sg17
(igamelib.math2d
Vector2
p385
(dp386
S'y'
F644.9142857142856
sS'x'
F25.714285714285712
sbsssbba(igamelib.misc
Beauty
p387
(igamelib.data
SaveData
p388
(dp389
g6
(dp390
S'instance'
p391
(dp392
g10
I01
sg11
F193.20842226678624
sg12
F1.805417458967373
sg13
I18
sg14
g15
sg16
I01
sg17
(igamelib.math2d
Vector2
p393
(dp394
S'y'
F255.08571428571426
sS'x'
F63.771428571428565
sbsssbba(igamelib.misc
Beauty
p395
(igamelib.data
SaveData
p396
(dp397
g6
(dp398
S'instance'
p399
(dp400
g10
I01
sg11
F358.42657440431117
sg12
F0.60334763331114738
sg13
I18
sg14
g15
sg16
I01
sg17
(igamelib.math2d
Vector2
p401
(dp402
S'y'
F78.171428571428564
sS'x'
F53.48571428571428
sbsssbba(igamelib.misc
Markable
p403
(igamelib.data
SaveData
p404
(dp405
g6
(dp406
S'instance'
p407
(dp408
g10
I01
sg11
F-270
sg12
F1
sg13
I10
sg14
g368
sg16
I01
sg17
(igamelib.math2d
Vector2
p409
(dp410
S'y'
F544
sS'x'
F928
sbsssbba(igamelib.misc
Beauty
p411
(igamelib.data
SaveData
p412
(dp413
g6
(dp414
S'instance'
p415
(dp416
g10
I01
sg11
F193.34660193269687
sg12
F1.7150598306575386
sg13
I18
sg14
g15
sg16
I01
sg17
(igamelib.math2d
Vector2
p417
(dp418
S'y'
F685.02857142857135
sS'x'
F158.39999999999998
sbsssbba(igamelib.misc
Beauty
p419
(igamelib.data
SaveData
p420
(dp421
g6
(dp422
S'instance'
p423
(dp424
g10
I01
sg11
F113.35693343085015
sg12
F1.9150386208306529
sg13
I18
sg14
g15
sg16
I01
sg17
(igamelib.math2d
Vector2
p425
(dp426
S'y'
F675.77142857142849
sS'x'
F382.62857142857138
sbsssbba(igamelib.misc
Beauty
p427
(igamelib.data
SaveData
p428
(dp429
g6
(dp430
S'instance'
p431
(dp432
g10
I01
sg11
F161.20084233838458
sg12
F0.66890947366908726
sg13
I18
sg14
g15
sg16
I01
sg17
(igamelib.math2d
Vector2
p433
(dp434
S'y'
F461.82857142857137
sS'x'
F66.857142857142847
sbsssbba(igamelib.misc
Markable
p435
(igamelib.data
SaveData
p436
(dp437
g6
(dp438
S'instance'
p439
(dp440
g10
I01
sg11
F0
sg12
F1
sg13
I10
sg14
g51
sg16
I01
sg17
(igamelib.math2d
Vector2
p441
(dp442
S'y'
F288
sS'x'
F736
sbsssbba(igamelib.misc
Markable
p443
(igamelib.data
SaveData
p444
(dp445
g6
(dp446
S'instance'
p447
(dp448
g10
I01
sg11
F-180
sg12
F1
sg13
I10
sg14
S'path_corner.png'
p449
sg16
I01
sg17
(igamelib.math2d
Vector2
p450
(dp451
S'y'
F224
sS'x'
F928
sbsssbba(igamelib.misc
Markable
p452
(igamelib.data
SaveData
p453
(dp454
g6
(dp455
S'instance'
p456
(dp457
g10
I01
sg11
F0
sg12
F1
sg13
I10
sg14
g51
sg16
I01
sg17
(igamelib.math2d
Vector2
p458
(dp459
S'y'
F352
sS'x'
F736
sbsssbba(igamelib.misc
Beauty
p460
(igamelib.data
SaveData
p461
(dp462
g6
(dp463
S'instance'
p464
(dp465
g10
I01
sg11
F180.22975874709729
sg12
F1.7023650169420272
sg13
I18
sg14
g15
sg16
I01
sg17
(igamelib.math2d
Vector2
p466
(dp467
S'y'
F399.08571428571423
sS'x'
F100.79999999999998
sbsssbba(igamelib.misc
Beauty
p468
(igamelib.data
SaveData
p469
(dp470
g6
(dp471
S'instance'
p472
(dp473
g10
I01
sg11
F86.825862050782135
sg12
F0.46271780739754848
sg13
I18
sg14
g15
sg16
I01
sg17
(igamelib.math2d
Vector2
p474
(dp475
S'y'
F59.657142857142851
sS'x'
F295.19999999999999
sbsssbba(igamelib.misc
Beauty
p476
(igamelib.data
SaveData
p477
(dp478
g6
(dp479
S'instance'
p480
(dp481
g10
I01
sg11
F51.495758845374326
sg12
F1.9331098958299155
sg13
I18
sg14
g15
sg16
I01
sg17
(igamelib.math2d
Vector2
p482
(dp483
S'y'
F609.94285714285706
sS'x'
F279.77142857142854
sbsssbba(igamelib.misc
Beauty
p484
(igamelib.data
SaveData
p485
(dp486
g6
(dp487
S'instance'
p488
(dp489
g10
I01
sg11
F173.07757082927927
sg12
F1.1879189663573608
sg13
I18
sg14
g15
sg16
I01
sg17
(igamelib.math2d
Vector2
p490
(dp491
S'y'
F562.62857142857138
sS'x'
F80.228571428571428
sbsssbba(igamelib.buildings
FastFood
p492
(igamelib.data
SaveData
p493
(dp494
g6
(dp495
S'instance'
p496
(dp497
g10
I01
sg222
(igamelib.pathfinding
Path
p498
(igamelib.data
SaveData
p499
(dp500
g6
(dp501
S'instance'
p502
(dp503
g10
I01
sg229
(igamelib.pathfinding
Waypoint
p504
(igamelib.data
SaveData
p505
(dp506
g6
(dp507
S'instance'
p508
(dp509
g236
Nsg237
(igamelib.pathfinding
Waypoint
p510
(igamelib.data
SaveData
p511
(dp512
g6
(dp513
S'instance'
p514
(dp515
g236
g504
sg237
(igamelib.pathfinding
Waypoint
p516
(igamelib.data
SaveData
p517
(dp518
g6
(dp519
S'instance'
p520
(dp521
g236
g510
sg237
(igamelib.pathfinding
Waypoint
p522
(igamelib.data
SaveData
p523
(dp524
g6
(dp525
S'instance'
p526
(dp527
g236
g516
sg237
Nsg17
(igamelib.math2d
Vector2
p528
(dp529
S'y'
F545
sS'x'
F950
sbsssbbsg17
(igamelib.math2d
Vector2
p530
(dp531
S'y'
F546
sS'x'
F735
sbsssbbsg17
(igamelib.math2d
Vector2
p532
(dp533
S'y'
F224
sS'x'
F736
sbsssbbsg17
(igamelib.math2d
Vector2
p534
(dp535
S'y'
F224
sS'x'
F396
sbsssbbsg16
I00
sssbbsg17
(igamelib.math2d
Vector2
p536
(dp537
S'y'
F224
sS'x'
F352
sbsg11
F-270
sg16
I01
sssbba(igamelib.misc
Beauty
p538
(igamelib.data
SaveData
p539
(dp540
g6
(dp541
S'instance'
p542
(dp543
g10
I01
sg11
F310.37248524238089
sg12
F1.3002365447935855
sg13
I18
sg14
g15
sg16
I01
sg17
(igamelib.math2d
Vector2
p544
(dp545
S'y'
F398.05714285714282
sS'x'
F30.857142857142854
sbsssbba(igamelib.misc
Beauty
p546
(igamelib.data
SaveData
p547
(dp548
g6
(dp549
S'instance'
p550
(dp551
g10
I01
sg11
F229.79848866928029
sg12
F1.7435688827287388
sg13
I18
sg14
g15
sg16
I01
sg17
(igamelib.math2d
Vector2
p552
(dp553
S'y'
F641.82857142857142
sS'x'
F7.1999999999999993
sbsssbba(igamelib.misc
Beauty
p554
(igamelib.data
SaveData
p555
(dp556
g6
(dp557
S'instance'
p558
(dp559
g10
I01
sg11
F319.55227943310416
sg12
F1.2676872388414495
sg13
I18
sg14
g15
sg16
I01
sg17
(igamelib.math2d
Vector2
p560
(dp561
S'y'
F308.57142857142856
sS'x'
F1093.3714285714284
sbsssbba(igamelib.misc
Beauty
p562
(igamelib.data
SaveData
p563
(dp564
g6
(dp565
S'instance'
p566
(dp567
g10
I01
sg11
F305.04807310434546
sg12
F1.2983316483295402
sg13
I18
sg14
g15
sg16
I01
sg17
(igamelib.math2d
Vector2
p568
(dp569
S'y'
F529.71428571428567
sS'x'
F33.942857142857136
sbsssbba(igamelib.misc
Markable
p570
(igamelib.data
SaveData
p571
(dp572
g6
(dp573
S'instance'
p574
(dp575
g10
I01
sg11
F-540
sg12
F1
sg13
I10
sg14
g51
sg16
I01
sg17
(igamelib.math2d
Vector2
p576
(dp577
S'y'
F288
sS'x'
F480
sbsssbba(igamelib.misc
Beauty
p578
(igamelib.data
SaveData
p579
(dp580
g6
(dp581
S'instance'
p582
(dp583
g10
I01
sg11
F232.22477227943943
sg12
F1.6422102775438143
sg13
I18
sg14
g15
sg16
I01
sg17
(igamelib.math2d
Vector2
p584
(dp585
S'y'
F121.37142857142857
sS'x'
F158.39999999999998
sbsssbba(igamelib.misc
Beauty
p586
(igamelib.data
SaveData
p587
(dp588
g6
(dp589
S'instance'
p590
(dp591
g10
I01
sg11
F348.12109343465295
sg12
F1.5041788372856781
sg13
I18
sg14
g15
sg16
I01
sg17
(igamelib.math2d
Vector2
p592
(dp593
S'y'
F167.65714285714284
sS'x'
F70.971428571428561
sbsssbba(igamelib.misc
Markable
p594
(igamelib.data
SaveData
p595
(dp596
g6
(dp597
S'instance'
p598
(dp599
g10
I01
sg11
F-270
sg12
F1
sg13
I10
sg14
g368
sg16
I01
sg17
(igamelib.math2d
Vector2
p600
(dp601
S'y'
F544
sS'x'
F864
sbsssbba(igamelib.misc
Beauty
p602
(igamelib.data
SaveData
p603
(dp604
g6
(dp605
S'instance'
p606
(dp607
g10
I01
sg11
F269.80109335600287
sg12
F0.98419349676122581
sg13
I18
sg14
g15
sg16
I01
sg17
(igamelib.math2d
Vector2
p608
(dp609
S'y'
F632.57142857142856
sS'x'
F135.77142857142854
sbsssbba(igamelib.misc
Beauty
p610
(igamelib.data
SaveData
p611
(dp612
g6
(dp613
S'instance'
p614
(dp615
g10
I01
sg11
F189.04484669320772
sg12
F1.8423985821764102
sg13
I18
sg14
g15
sg16
I01
sg17
(igamelib.math2d
Vector2
p616
(dp617
S'y'
F308.57142857142856
sS'x'
F28.799999999999997
sbsssbba(igamelib.misc
Beauty
p618
(igamelib.data
SaveData
p619
(dp620
g6
(dp621
S'instance'
p622
(dp623
g10
I01
sg11
F190.22721755545754
sg12
F0.83075075898764439
sg13
I18
sg14
g15
sg16
I01
sg17
(igamelib.math2d
Vector2
p624
(dp625
S'y'
F672.6857142857142
sS'x'
F295.19999999999999
sbsssbba(igamelib.misc
Beauty
p626
(igamelib.data
SaveData
p627
(dp628
g6
(dp629
S'instance'
p630
(dp631
g10
I01
sg11
F324.11524327627433
sg12
F1.3648143517054137
sg13
I18
sg14
g15
sg16
I01
sg17
(igamelib.math2d
Vector2
p632
(dp633
S'y'
F34.971428571428568
sS'x'
F15.428571428571427
sbsssbba(igamelib.misc
Beauty
p634
(igamelib.data
SaveData
p635
(dp636
g6
(dp637
S'instance'
p638
(dp639
g10
I01
sg11
F-149.46216837974166
sg12
F1.7399636710617303
sg13
I18
sg14
g15
sg16
I01
sg17
(igamelib.math2d
Vector2
p640
(dp641
S'y'
F18.514285714285712
sS'x'
F832.11428571428564
sbsssbba(igamelib.misc
Beauty
p642
(igamelib.data
SaveData
p643
(dp644
g6
(dp645
S'instance'
p646
(dp647
g10
I01
sg11
F305.4032746536102
sg12
F0.62730527263060964
sg13
I18
sg14
g15
sg16
I01
sg17
(igamelib.math2d
Vector2
p648
(dp649
S'y'
F168.68571428571425
sS'x'
F25.714285714285712
sbsssbba(igamelib.misc
Beauty
p650
(igamelib.data
SaveData
p651
(dp652
g6
(dp653
S'instance'
p654
(dp655
g10
I01
sg11
F274.68391305256
sg12
F0.80362045811364402
sg13
I18
sg14
g15
sg16
I01
sg17
(igamelib.math2d
Vector2
p656
(dp657
S'y'
F602.74285714285713
sS'x'
F256.1142857142857
sbsssbba(igamelib.misc
Markable
p658
(igamelib.data
SaveData
p659
(dp660
g6
(dp661
S'instance'
p662
(dp663
g10
I01
sg11
F-180
sg12
F1
sg13
I10
sg14
g34
sg16
I01
sg17
(igamelib.math2d
Vector2
p664
(dp665
S'y'
F288
sS'x'
F928
sbsssbba(igamelib.misc
Beauty
p666
(igamelib.data
SaveData
p667
(dp668
g6
(dp669
S'instance'
p670
(dp671
g10
I01
sg11
F207.71049529618665
sg12
F1.1144671312678465
sg13
I18
sg14
g15
sg16
I01
sg17
(igamelib.math2d
Vector2
p672
(dp673
S'y'
F686.05714285714282
sS'x'
F213.94285714285712
sbsssbba(igamelib.misc
Beauty
p674
(igamelib.data
SaveData
p675
(dp676
g6
(dp677
S'instance'
p678
(dp679
g10
I01
sg11
F155.11238461662813
sg12
F1.7029385900310594
sg13
I18
sg14
g15
sg16
I01
sg17
(igamelib.math2d
Vector2
p680
(dp681
S'y'
F350.74285714285713
sS'x'
F135.77142857142854
sbsssbba(igamelib.misc
Beauty
p682
(igamelib.data
SaveData
p683
(dp684
g6
(dp685
S'instance'
p686
(dp687
g10
I01
sg11
F113.65830895584142
sg12
F1.2404557498548958
sg13
I18
sg14
g15
sg16
I01
sg17
(igamelib.math2d
Vector2
p688
(dp689
S'y'
F47.31428571428571
sS'x'
F213.94285714285712
sbsssbba(igamelib.misc
Beauty
p690
(igamelib.data
SaveData
p691
(dp692
g6
(dp693
S'instance'
p694
(dp695
g10
I01
sg11
F139.47191962141352
sg12
F0.60572678647888367
sg13
I18
sg14
g15
sg16
I01
sg17
(igamelib.math2d
Vector2
p696
(dp697
S'y'
F106.97142857142856
sS'x'
F217.02857142857141
sbsssbba(igamelib.misc
Beauty
p698
(igamelib.data
SaveData
p699
(dp700
g6
(dp701
S'instance'
p702
(dp703
g10
I01
sg11
F167.0552111667202
sg12
F1.0941158812708172
sg13
I18
sg14
g15
sg16
I01
sg17
(igamelib.math2d
Vector2
p704
(dp705
S'y'
F672.6857142857142
sS'x'
F485.48571428571427
sbsssbba(igamelib.buildings
Orphanage
p706
(igamelib.data
SaveData
p707
(dp708
g6
(dp709
S'instance'
p710
(dp711
g10
I01
sg222
(igamelib.pathfinding
Path
p712
(igamelib.data
SaveData
p713
(dp714
g6
(dp715
S'instance'
p716
(dp717
g10
I01
sg229
(igamelib.pathfinding
Waypoint
p718
(igamelib.data
SaveData
p719
(dp720
g6
(dp721
S'instance'
p722
(dp723
g236
Nsg237
(igamelib.pathfinding
Waypoint
p724
(igamelib.data
SaveData
p725
(dp726
g6
(dp727
S'instance'
p728
(dp729
g236
g718
sg237
(igamelib.pathfinding
Waypoint
p730
(igamelib.data
SaveData
p731
(dp732
g6
(dp733
S'instance'
p734
(dp735
g236
g724
sg237
(igamelib.pathfinding
Waypoint
p736
(igamelib.data
SaveData
p737
(dp738
g6
(dp739
S'instance'
p740
(dp741
g236
g730
sg237
(igamelib.pathfinding
Waypoint
p742
(igamelib.data
SaveData
p743
(dp744
g6
(dp745
S'instance'
p746
(dp747
g236
g736
sg237
(igamelib.pathfinding
Waypoint
p748
(igamelib.data
SaveData
p749
(dp750
g6
(dp751
S'instance'
p752
(dp753
g236
g742
sg237
Nsg17
(igamelib.math2d
Vector2
p754
(dp755
S'y'
F545
sS'x'
F950
sbsssbbsg17
(igamelib.math2d
Vector2
p756
(dp757
S'y'
F545
sS'x'
F736
sbsssbbsg17
(igamelib.math2d
Vector2
p758
(dp759
S'y'
F223
sS'x'
F736
sbsssbbsg17
(igamelib.math2d
Vector2
p760
(dp761
S'y'
F224
sS'x'
F931
sbsssbbsg17
(igamelib.math2d
Vector2
p762
(dp763
S'y'
F267
sS'x'
F944
sbsssbbsg17
(igamelib.math2d
Vector2
p764
(dp765
S'y'
F272
sS'x'
F917
sbsssbbsg16
I00
sssbbsg17
(igamelib.math2d
Vector2
p766
(dp767
S'y'
F288
sS'x'
F928
sbsg11
F-270
sg16
I01
sssbba(igamelib.misc
Beauty
p768
(igamelib.data
SaveData
p769
(dp770
g6
(dp771
S'instance'
p772
(dp773
g10
I01
sg11
F51.783879555644191
sg12
F1.9099186187329285
sg13
I18
sg14
g15
sg16
I01
sg17
(igamelib.math2d
Vector2
p774
(dp775
S'y'
F60.685714285714283
sS'x'
F126.51428571428571
sbsssbba(igamelib.misc
Markable
p776
(igamelib.data
SaveData
p777
(dp778
g6
(dp779
S'instance'
p780
(dp781
g10
I01
sg11
F-720
sg12
F1
sg13
I10
sg14
g101
sg16
I01
sg17
(igamelib.math2d
Vector2
p782
(dp783
S'y'
F416
sS'x'
F480
sbsssbba(igamelib.misc
Markable
p784
(igamelib.data
SaveData
p785
(dp786
g6
(dp787
S'instance'
p788
(dp789
g10
I01
sg11
F-270
sg12
F1
sg13
I10
sg14
g51
sg16
I01
sg17
(igamelib.math2d
Vector2
p790
(dp791
S'y'
F224
sS'x'
F416
sbsssbba(igamelib.misc
Markable
p792
(igamelib.data
SaveData
p793
(dp794
g6
(dp795
S'instance'
p796
(dp797
g10
I01
sg11
F0
sg12
F1
sg13
I10
sg14
g51
sg16
I01
sg17
(igamelib.math2d
Vector2
p798
(dp799
S'y'
F480
sS'x'
F736
sbsssbba(igamelib.towers
Tank
p800
(igamelib.data
SaveData
p801
(dp802
g6
(dp803
S'instance'
p804
(dp805
g10
I01
sg17
(igamelib.math2d
Vector2
p806
(dp807
S'y'
F608
sS'x'
F800
sbsg11
F-472.5
sg16
I01
sssbba(igamelib.misc
Beauty
p808
(igamelib.data
SaveData
p809
(dp810
g6
(dp811
S'instance'
p812
(dp813
g10
I01
sg11
F108.47640965985002
sg12
F1.0586306361372655
sg13
I18
sg14
g15
sg16
I01
sg17
(igamelib.math2d
Vector2
p814
(dp815
S'y'
F213.94285714285712
sS'x'
F11.314285714285713
sbsssbbatRp816
.