c__builtin__
set
p1
((lp2
(igamelib.misc
Beauty
p3
(igamelib.data
SaveData
p4
(dp5
S'classes'
p6
(dp7
S'instance'
p8
(dp9
S'__visible'
p10
I01
sS'_rotation'
p11
F114.32759741708711
sS'_Scale'
p12
F1.2316770304974338
sS'_z_index'
p13
I18
sS'_TextureName'
p14
S'deco_tree.png'
p15
sS'__renderCallback'
p16
I01
sS'_position'
p17
(igamelib.math2d
Vector2
p18
(dp19
S'y'
F633
sS'x'
F837
sbsssbba(igamelib.towers
Bunker
p20
(igamelib.data
SaveData
p21
(dp22
g6
(dp23
S'instance'
p24
(dp25
g10
I01
sg17
(igamelib.math2d
Vector2
p26
(dp27
S'y'
F96
sS'x'
F416
sbsg11
F-720
sg16
I01
sssbba(igamelib.misc
Beauty
p28
(igamelib.data
SaveData
p29
(dp30
g6
(dp31
S'instance'
p32
(dp33
g10
I01
sg11
F-270
sg12
F1
sg13
I10
sg14
S'path_straight.png'
p34
sg16
I01
sg17
(igamelib.math2d
Vector2
p35
(dp36
S'y'
F160
sS'x'
F608
sbsssbba(igamelib.misc
Beauty
p37
(igamelib.data
SaveData
p38
(dp39
g6
(dp40
S'instance'
p41
(dp42
g10
I01
sg11
F-1530
sg12
F1
sg13
I10
sg14
g34
sg16
I01
sg17
(igamelib.math2d
Vector2
p43
(dp44
S'y'
F352
sS'x'
F736
sbsssbba(igamelib.towers
Bunker
p45
(igamelib.data
SaveData
p46
(dp47
g6
(dp48
S'instance'
p49
(dp50
g10
I01
sg17
(igamelib.math2d
Vector2
p51
(dp52
S'y'
F416
sS'x'
F416
sbsg11
F0
sg16
I01
sssbba(igamelib.towers
Tank
p53
(igamelib.data
SaveData
p54
(dp55
g6
(dp56
S'instance'
p57
(dp58
g10
I01
sg17
(igamelib.math2d
Vector2
p59
(dp60
S'y'
F480
sS'x'
F480
sbsg11
F-1777.5
sg16
I01
sssbba(igamelib.misc
Beauty
p61
(igamelib.data
SaveData
p62
(dp63
g6
(dp64
S'instance'
p65
(dp66
g10
I01
sg11
F117.19564008480506
sg12
F0.74813547105917921
sg13
I18
sg14
g15
sg16
I01
sg17
(igamelib.math2d
Vector2
p67
(dp68
S'y'
F678
sS'x'
F472
sbsssbba(igamelib.misc
Beauty
p69
(igamelib.data
SaveData
p70
(dp71
g6
(dp72
S'instance'
p73
(dp74
g10
I01
sg11
F141.73503614727105
sg12
F1.6972910532557135
sg13
I18
sg14
g15
sg16
I01
sg17
(igamelib.math2d
Vector2
p75
(dp76
S'y'
F669
sS'x'
F102
sbsssbba(igamelib.misc
Beauty
p77
(igamelib.data
SaveData
p78
(dp79
g6
(dp80
S'instance'
p81
(dp82
g10
I01
sg11
F160.21884928997585
sg12
F1.1358216404377688
sg13
I18
sg14
g15
sg16
I01
sg17
(igamelib.math2d
Vector2
p83
(dp84
S'y'
F618
sS'x'
F956
sbsssbba(igamelib.misc
Beauty
p85
(igamelib.data
SaveData
p86
(dp87
g6
(dp88
S'instance'
p89
(dp90
g10
I01
sg11
F213.52956599668167
sg12
F0.7223461652087364
sg13
I18
sg14
g15
sg16
I01
sg17
(igamelib.math2d
Vector2
p91
(dp92
S'y'
F47
sS'x'
F33
sbsssbba(igamelib.towers
Tank
p93
(igamelib.data
SaveData
p94
(dp95
g6
(dp96
S'instance'
p97
(dp98
g10
I01
sg17
(igamelib.math2d
Vector2
p99
(dp100
S'y'
F288
sS'x'
F608
sbsg11
F-1755
sg16
I01
sssbba(igamelib.towers
Bunker
p101
(igamelib.data
SaveData
p102
(dp103
g6
(dp104
S'instance'
p105
(dp106
g10
I01
sg17
(igamelib.math2d
Vector2
p107
(dp108
S'y'
F96
sS'x'
F480
sbsg11
F0
sg16
I01
sssbba(igamelib.misc
Beauty
p109
(igamelib.data
SaveData
p110
(dp111
g6
(dp112
S'instance'
p113
(dp114
g10
I01
sg11
F-63.233464941814475
sg12
F1.2885840154787167
sg13
I18
sg14
g15
sg16
I01
sg17
(igamelib.math2d
Vector2
p115
(dp116
S'y'
F136
sS'x'
F221
sbsssbba(igamelib.towers
Tank
p117
(igamelib.data
SaveData
p118
(dp119
g6
(dp120
S'instance'
p121
(dp122
g10
I01
sg17
(igamelib.math2d
Vector2
p123
(dp124
S'y'
F608
sS'x'
F544
sbsg11
F-1822.5
sg16
I01
sssbba(igamelib.misc
Beauty
p125
(igamelib.data
SaveData
p126
(dp127
g6
(dp128
S'instance'
p129
(dp130
g10
I01
sg11
F-270
sg12
F1
sg13
I10
sg14
g34
sg16
I01
sg17
(igamelib.math2d
Vector2
p131
(dp132
S'y'
F352
sS'x'
F224
sbsssbba(igamelib.towers
Bunker
p133
(igamelib.data
SaveData
p134
(dp135
g6
(dp136
S'instance'
p137
(dp138
g10
I01
sg17
(igamelib.math2d
Vector2
p139
(dp140
S'y'
F416
sS'x'
F352
sbsg11
F0
sg16
I01
sssbba(igamelib.towers
Tank
p141
(igamelib.data
SaveData
p142
(dp143
g6
(dp144
S'instance'
p145
(dp146
g10
I01
sg17
(igamelib.math2d
Vector2
p147
(dp148
S'y'
F480
sS'x'
F416
sbsg11
F-1620
sg16
I01
sssbba(igamelib.misc
Beauty
p149
(igamelib.data
SaveData
p150
(dp151
g6
(dp152
S'instance'
p153
(dp154
g10
I01
sg11
F-1710
sg12
F1
sg13
I10
sg14
S'path_corner.png'
p155
sg16
I01
sg17
(igamelib.math2d
Vector2
p156
(dp157
S'y'
F544
sS'x'
F608
sbsssbba(igamelib.misc
Beauty
p158
(igamelib.data
SaveData
p159
(dp160
g6
(dp161
S'instance'
p162
(dp163
g10
I01
sg11
F297.62840504487644
sg12
F0.72519174165072142
sg13
I18
sg14
g15
sg16
I01
sg17
(igamelib.math2d
Vector2
p164
(dp165
S'y'
F691
sS'x'
F133
sbsssbba(igamelib.misc
Beauty
p166
(igamelib.data
SaveData
p167
(dp168
g6
(dp169
S'instance'
p170
(dp171
g10
I01
sg11
F197.01748800226565
sg12
F0.46371846036354747
sg13
I18
sg14
g15
sg16
I01
sg17
(igamelib.math2d
Vector2
p172
(dp173
S'y'
F541
sS'x'
F1086
sbsssbba(igamelib.misc
Beauty
p174
(igamelib.data
SaveData
p175
(dp176
g6
(dp177
S'instance'
p178
(dp179
g10
I01
sg11
F125.12272425782216
sg12
F1.3767538144860869
sg13
I18
sg14
g15
sg16
I01
sg17
(igamelib.math2d
Vector2
p180
(dp181
S'y'
F701
sS'x'
F187
sbsssbba(igamelib.towers
Tank
p182
(igamelib.data
SaveData
p183
(dp184
g6
(dp185
S'instance'
p186
(dp187
g10
I01
sg17
(igamelib.math2d
Vector2
p188
(dp189
S'y'
F288
sS'x'
F736
sbsg11
F-1687.5
sg16
I01
sssbba(igamelib.towers
Tank
p190
(igamelib.data
SaveData
p191
(dp192
g6
(dp193
S'instance'
p194
(dp195
g10
I01
sg17
(igamelib.math2d
Vector2
p196
(dp197
S'y'
F608
sS'x'
F480
sbsg11
F-1845
sg16
I01
sssbba(igamelib.towers
Bunker
p198
(igamelib.data
SaveData
p199
(dp200
g6
(dp201
S'instance'
p202
(dp203
g10
I01
sg17
(igamelib.math2d
Vector2
p204
(dp205
S'y'
F224
sS'x'
F544
sbsg11
F-450
sg16
I01
sssbba(igamelib.towers
Tank
p206
(igamelib.data
SaveData
p207
(dp208
g6
(dp209
S'instance'
p210
(dp211
g10
I01
sg17
(igamelib.math2d
Vector2
p212
(dp213
S'y'
F288
sS'x'
F672
sbsg11
F-1755
sg16
I01
sssbba(igamelib.misc
Beauty
p214
(igamelib.data
SaveData
p215
(dp216
g6
(dp217
S'instance'
p218
(dp219
g10
I01
sg11
F-1350
sg12
F1
sg13
I10
sg14
g34
sg16
I01
sg17
(igamelib.math2d
Vector2
p220
(dp221
S'y'
F544
sS'x'
F480
sbsssbba(igamelib.misc
Beauty
p222
(igamelib.data
SaveData
p223
(dp224
g6
(dp225
S'instance'
p226
(dp227
g10
I01
sg11
F-1350
sg12
F1
sg13
I10
sg14
g34
sg16
I01
sg17
(igamelib.math2d
Vector2
p228
(dp229
S'y'
F544
sS'x'
F544
sbsssbba(igamelib.towers
Tank
p230
(igamelib.data
SaveData
p231
(dp232
g6
(dp233
S'instance'
p234
(dp235
g10
I01
sg17
(igamelib.math2d
Vector2
p236
(dp237
S'y'
F544
sS'x'
F672
sbsg11
F-1755
sg16
I01
sssbba(igamelib.towers
Bunker
p238
(igamelib.data
SaveData
p239
(dp240
g6
(dp241
S'instance'
p242
(dp243
g10
I01
sg17
(igamelib.math2d
Vector2
p244
(dp245
S'y'
F160
sS'x'
F352
sbsg11
F-945
sg16
I01
sssbba(igamelib.misc
Beauty
p246
(igamelib.data
SaveData
p247
(dp248
g6
(dp249
S'instance'
p250
(dp251
g10
I01
sg11
F77.026336760036514
sg12
F1.8835534533473353
sg13
I18
sg14
g15
sg16
I01
sg17
(igamelib.math2d
Vector2
p252
(dp253
S'y'
F707
sS'x'
F28
sbsssbba(igamelib.misc
Beauty
p254
(igamelib.data
SaveData
p255
(dp256
g6
(dp257
S'instance'
p258
(dp259
g10
I01
sg11
F-1170
sg12
F1
sg13
I10
sg14
g34
sg16
I01
sg17
(igamelib.math2d
Vector2
p260
(dp261
S'y'
F544
sS'x'
F352
sbsssbba(igamelib.misc
Beauty
p262
(igamelib.data
SaveData
p263
(dp264
g6
(dp265
S'instance'
p266
(dp267
g10
I01
sg11
F-1530
sg12
F1
sg13
I10
sg14
g34
sg16
I01
sg17
(igamelib.math2d
Vector2
p268
(dp269
S'y'
F352
sS'x'
F864
sbsssbba(igamelib.towers
Bunker
p270
(igamelib.data
SaveData
p271
(dp272
g6
(dp273
S'instance'
p274
(dp275
g10
I01
sg17
(igamelib.math2d
Vector2
p276
(dp277
S'y'
F224
sS'x'
F480
sbsg11
F0
sg16
I01
sssbba(igamelib.misc
Beauty
p278
(igamelib.data
SaveData
p279
(dp280
g6
(dp281
S'instance'
p282
(dp283
g10
I01
sg11
F2.3047722031620799
sg12
F1.7418740632603082
sg13
I18
sg14
g15
sg16
I01
sg17
(igamelib.math2d
Vector2
p284
(dp285
S'y'
F696
sS'x'
F279
sbsssbba(igamelib.buildings
Beergarden
p286
(igamelib.data
SaveData
p287
(dp288
g6
(dp289
S'instance'
p290
(dp291
g10
I01
sS'path'
p292
(igamelib.pathfinding
Path
p293
(igamelib.data
SaveData
p294
(dp295
g6
(dp296
S'instance'
p297
(dp298
g10
I01
sS'_Start'
p299
(igamelib.pathfinding
Waypoint
p300
(igamelib.data
SaveData
p301
(dp302
g6
(dp303
S'instance'
p304
(dp305
S'_previous'
p306
NsS'_next'
p307
(igamelib.pathfinding
Waypoint
p308
(igamelib.data
SaveData
p309
(dp310
g6
(dp311
S'instance'
p312
(dp313
g306
g300
sg307
(igamelib.pathfinding
Waypoint
p314
(igamelib.data
SaveData
p315
(dp316
g6
(dp317
S'instance'
p318
(dp319
g306
g308
sg307
(igamelib.pathfinding
Waypoint
p320
(igamelib.data
SaveData
p321
(dp322
g6
(dp323
S'instance'
p324
(dp325
g306
g314
sg307
Nsg17
(igamelib.math2d
Vector2
p326
(dp327
S'y'
F356
sS'x'
F137
sbsssbbsg17
(igamelib.math2d
Vector2
p328
(dp329
S'y'
F355
sS'x'
F411
sbsssbbsg17
(igamelib.math2d
Vector2
p330
(dp331
S'y'
F162
sS'x'
F409
sbsssbbsg17
(igamelib.math2d
Vector2
p332
(dp333
S'y'
F161
sS'x'
F632
sbsssbbsg16
I00
sssbbsg17
(igamelib.math2d
Vector2
p334
(dp335
S'y'
F160
sS'x'
F672
sbsg11
F-450
sg16
I01
sssbba(igamelib.misc
Beauty
p336
(igamelib.data
SaveData
p337
(dp338
g6
(dp339
S'instance'
p340
(dp341
g10
I01
sg11
F348.54883138879995
sg12
F1.9216780885961449
sg13
I18
sg14
g15
sg16
I01
sg17
(igamelib.math2d
Vector2
p342
(dp343
S'y'
F699
sS'x'
F625
sbsssbba(igamelib.misc
Beauty
p344
(igamelib.data
SaveData
p345
(dp346
g6
(dp347
S'instance'
p348
(dp349
g10
I01
sg11
F114.33808906982105
sg12
F1.9405639724637644
sg13
I18
sg14
g15
sg16
I01
sg17
(igamelib.math2d
Vector2
p350
(dp351
S'y'
F12
sS'x'
F145
sbsssbba(igamelib.towers
Tank
p352
(igamelib.data
SaveData
p353
(dp354
g6
(dp355
S'instance'
p356
(dp357
g10
I01
sg17
(igamelib.math2d
Vector2
p358
(dp359
S'y'
F480
sS'x'
F544
sbsg11
F-1755
sg16
I01
sssbba(igamelib.towers
Tank
p360
(igamelib.data
SaveData
p361
(dp362
g6
(dp363
S'instance'
p364
(dp365
g10
I01
sg17
(igamelib.math2d
Vector2
p366
(dp367
S'y'
F416
sS'x'
F736
sbsg11
F-1665
sg16
I01
sssbba(igamelib.towers
Tank
p368
(igamelib.data
SaveData
p369
(dp370
g6
(dp371
S'instance'
p372
(dp373
g10
I01
sg17
(igamelib.math2d
Vector2
p374
(dp375
S'y'
F608
sS'x'
F672
sbsg11
F-1530
sg16
I01
sssbba(igamelib.misc
Beauty
p376
(igamelib.data
SaveData
p377
(dp378
g6
(dp379
S'instance'
p380
(dp381
g10
I01
sg11
F-270
sg12
F1
sg13
I10
sg14
g34
sg16
I01
sg17
(igamelib.math2d
Vector2
p382
(dp383
S'y'
F160
sS'x'
F480
sbsssbba(igamelib.towers
Tank
p384
(igamelib.data
SaveData
p385
(dp386
g6
(dp387
S'instance'
p388
(dp389
g10
I01
sg17
(igamelib.math2d
Vector2
p390
(dp391
S'y'
F288
sS'x'
F544
sbsg11
F-1642.5
sg16
I01
sssbba(igamelib.towers
Bunker
p392
(igamelib.data
SaveData
p393
(dp394
g6
(dp395
S'instance'
p396
(dp397
g10
I01
sg17
(igamelib.math2d
Vector2
p398
(dp399
S'y'
F96
sS'x'
F352
sbsg11
F0
sg16
I01
sssbba(igamelib.misc
Beauty
p400
(igamelib.data
SaveData
p401
(dp402
g6
(dp403
S'instance'
p404
(dp405
g10
I01
sg11
F-270
sg12
F1
sg13
I10
sg14
g34
sg16
I01
sg17
(igamelib.math2d
Vector2
p406
(dp407
S'y'
F352
sS'x'
F288
sbsssbba(igamelib.misc
Beauty
p408
(igamelib.data
SaveData
p409
(dp410
g6
(dp411
S'instance'
p412
(dp413
g10
I01
sg11
F-270
sg12
F1
sg13
I10
sg14
g34
sg16
I01
sg17
(igamelib.math2d
Vector2
p414
(dp415
S'y'
F352
sS'x'
F352
sbsssbba(igamelib.towers
Tank
p416
(igamelib.data
SaveData
p417
(dp418
g6
(dp419
S'instance'
p420
(dp421
g10
I01
sg17
(igamelib.math2d
Vector2
p422
(dp423
S'y'
F288
sS'x'
F800
sbsg11
F-1800
sg16
I01
sssbba(igamelib.towers
Bunker
p424
(igamelib.data
SaveData
p425
(dp426
g6
(dp427
S'instance'
p428
(dp429
g10
I01
sg17
(igamelib.math2d
Vector2
p430
(dp431
S'y'
F352
sS'x'
F480
sbsg11
F0
sg16
I01
sssbba(igamelib.misc
Beauty
p432
(igamelib.data
SaveData
p433
(dp434
g6
(dp435
S'instance'
p436
(dp437
g10
I01
sg11
F-810
sg12
F1
sg13
I10
sg14
g155
sg16
I01
sg17
(igamelib.math2d
Vector2
p438
(dp439
S'y'
F160
sS'x'
F416
sbsssbba(igamelib.misc
Beauty
p440
(igamelib.data
SaveData
p441
(dp442
g6
(dp443
S'instance'
p444
(dp445
g10
I01
sg11
F-1440
sg12
F1
sg13
I10
sg14
g34
sg16
I01
sg17
(igamelib.math2d
Vector2
p446
(dp447
S'y'
F480
sS'x'
F608
sbsssbba(igamelib.towers
Tank
p448
(igamelib.data
SaveData
p449
(dp450
g6
(dp451
S'instance'
p452
(dp453
g10
I01
sg17
(igamelib.math2d
Vector2
p454
(dp455
S'y'
F608
sS'x'
F416
sbsg11
F-2002.5
sg16
I01
sssbba(igamelib.misc
Beauty
p456
(igamelib.data
SaveData
p457
(dp458
g6
(dp459
S'instance'
p460
(dp461
g10
I01
sg11
F-1440
sg12
F1
sg13
I10
sg14
g34
sg16
I01
sg17
(igamelib.math2d
Vector2
p462
(dp463
S'y'
F416
sS'x'
F608
sbsssbba(igamelib.towers
Bunker
p464
(igamelib.data
SaveData
p465
(dp466
g6
(dp467
S'instance'
p468
(dp469
g10
I01
sg17
(igamelib.math2d
Vector2
p470
(dp471
S'y'
F288
sS'x'
F480
sbsg11
F0
sg16
I01
sssbba(igamelib.misc
Beauty
p472
(igamelib.data
SaveData
p473
(dp474
g6
(dp475
S'instance'
p476
(dp477
g10
I01
sg11
F-630
sg12
F1
sg13
I10
sg14
g155
sg16
I01
sg17
(igamelib.math2d
Vector2
p478
(dp479
S'y'
F352
sS'x'
F416
sbsssbba(igamelib.towers
Tank
p480
(igamelib.data
SaveData
p481
(dp482
g6
(dp483
S'instance'
p484
(dp485
g10
I01
sg17
(igamelib.math2d
Vector2
p486
(dp487
S'y'
F352
sS'x'
F544
sbsg11
F-1822.5
sg16
I01
sssbba(igamelib.misc
Beauty
p488
(igamelib.data
SaveData
p489
(dp490
g6
(dp491
S'instance'
p492
(dp493
g10
I01
sg11
F297.89054364248329
sg12
F1.2960104838897486
sg13
I18
sg14
g15
sg16
I01
sg17
(igamelib.math2d
Vector2
p494
(dp495
S'y'
F653
sS'x'
F29
sbsssbba(igamelib.towers
Bunker
p496
(igamelib.data
SaveData
p497
(dp498
g6
(dp499
S'instance'
p500
(dp501
g10
I01
sg17
(igamelib.math2d
Vector2
p502
(dp503
S'y'
F416
sS'x'
F480
sbsg11
F0
sg16
I01
sssbba(igamelib.misc
Beauty
p504
(igamelib.data
SaveData
p505
(dp506
g6
(dp507
S'instance'
p508
(dp509
g10
I01
sg11
F271.4160924618821
sg12
F1.1605099749519612
sg13
I18
sg14
g15
sg16
I01
sg17
(igamelib.math2d
Vector2
p510
(dp511
S'y'
F486
sS'x'
F118
sbsssbba(igamelib.misc
Beauty
p512
(igamelib.data
SaveData
p513
(dp514
g6
(dp515
S'instance'
p516
(dp517
g10
I01
sg11
F-1530
sg12
F1
sg13
I10
sg14
g34
sg16
I01
sg17
(igamelib.math2d
Vector2
p518
(dp519
S'y'
F352
sS'x'
F672
sbsssbba(igamelib.towers
Bunker
p520
(igamelib.data
SaveData
p521
(dp522
g6
(dp523
S'instance'
p524
(dp525
g10
I01
sg17
(igamelib.math2d
Vector2
p526
(dp527
S'y'
F288
sS'x'
F288
sbsg11
F0
sg16
I01
sssbba(igamelib.misc
Beauty
p528
(igamelib.data
SaveData
p529
(dp530
g6
(dp531
S'instance'
p532
(dp533
g10
I01
sg11
F-270
sg12
F1
sg13
I10
sg14
g34
sg16
I01
sg17
(igamelib.math2d
Vector2
p534
(dp535
S'y'
F160
sS'x'
F544
sbsssbba(igamelib.towers
Tank
p536
(igamelib.data
SaveData
p537
(dp538
g6
(dp539
S'instance'
p540
(dp541
g10
I01
sg17
(igamelib.math2d
Vector2
p542
(dp543
S'y'
F416
sS'x'
F800
sbsg11
F-1777.5
sg16
I01
sssbba(igamelib.towers
Bunker
p544
(igamelib.data
SaveData
p545
(dp546
g6
(dp547
S'instance'
p548
(dp549
g10
I01
sg17
(igamelib.math2d
Vector2
p550
(dp551
S'y'
F96
sS'x'
F544
sbsg11
F0
sg16
I01
sssbba(igamelib.misc
Beauty
p552
(igamelib.data
SaveData
p553
(dp554
g6
(dp555
S'instance'
p556
(dp557
g10
I01
sg11
F186.45970082159727
sg12
F1.4798402226565155
sg13
I18
sg14
g15
sg16
I01
sg17
(igamelib.math2d
Vector2
p558
(dp559
S'y'
F623
sS'x'
F24
sbsssbba(igamelib.towers
Bunker
p560
(igamelib.data
SaveData
p561
(dp562
g6
(dp563
S'instance'
p564
(dp565
g10
I01
sg17
(igamelib.math2d
Vector2
p566
(dp567
S'y'
F288
sS'x'
F352
sbsg11
F-90
sg16
I01
sssbba(igamelib.buildings
HQ
p568
(igamelib.data
SaveData
p569
(dp570
g6
(dp571
S'instance'
p572
(dp573
g10
I01
sg17
(igamelib.math2d
Vector2
p574
(dp575
S'y'
F352
sS'x'
F96
sbsg11
F-90
sg16
I01
sssbba(igamelib.misc
Beauty
p576
(igamelib.data
SaveData
p577
(dp578
g6
(dp579
S'instance'
p580
(dp581
g10
I01
sg11
F-270
sg12
F1
sg13
I10
sg14
g34
sg16
I01
sg17
(igamelib.math2d
Vector2
p582
(dp583
S'y'
F352
sS'x'
F160
sbsssbba(igamelib.towers
Bunker
p584
(igamelib.data
SaveData
p585
(dp586
g6
(dp587
S'instance'
p588
(dp589
g10
I01
sg17
(igamelib.math2d
Vector2
p590
(dp591
S'y'
F416
sS'x'
F224
sbsg11
F0
sg16
I01
sssbba(igamelib.towers
Tank
p592
(igamelib.data
SaveData
p593
(dp594
g6
(dp595
S'instance'
p596
(dp597
g10
I01
sg17
(igamelib.math2d
Vector2
p598
(dp599
S'y'
F416
sS'x'
F544
sbsg11
F-1710
sg16
I01
sssbba(igamelib.towers
Tank
p600
(igamelib.data
SaveData
p601
(dp602
g6
(dp603
S'instance'
p604
(dp605
g10
I01
sg17
(igamelib.math2d
Vector2
p606
(dp607
S'y'
F416
sS'x'
F672
sbsg11
F-1620
sg16
I01
sssbba(igamelib.misc
Beauty
p608
(igamelib.data
SaveData
p609
(dp610
g6
(dp611
S'instance'
p612
(dp613
g10
I01
sg11
F150.19303824189623
sg12
F1.3252125348690755
sg13
I18
sg14
g15
sg16
I01
sg17
(igamelib.math2d
Vector2
p614
(dp615
S'y'
F620
sS'x'
F873
sbsssbba(igamelib.towers
Bunker
p616
(igamelib.data
SaveData
p617
(dp618
g6
(dp619
S'instance'
p620
(dp621
g10
I01
sg17
(igamelib.math2d
Vector2
p622
(dp623
S'y'
F224
sS'x'
F352
sbsg11
F0
sg16
I01
sssbba(igamelib.towers
Tank
p624
(igamelib.data
SaveData
p625
(dp626
g6
(dp627
S'instance'
p628
(dp629
g10
I01
sg17
(igamelib.math2d
Vector2
p630
(dp631
S'y'
F608
sS'x'
F608
sbsg11
F-1777.5
sg16
I01
sssbba(igamelib.misc
Beauty
p632
(igamelib.data
SaveData
p633
(dp634
g6
(dp635
S'instance'
p636
(dp637
g10
I01
sg11
F58.849224714256167
sg12
F1.3275919675266823
sg13
I18
sg14
g15
sg16
I01
sg17
(igamelib.math2d
Vector2
p638
(dp639
S'y'
F555
sS'x'
F11
sbsssbba(igamelib.towers
Bunker
p640
(igamelib.data
SaveData
p641
(dp642
g6
(dp643
S'instance'
p644
(dp645
g10
I01
sg17
(igamelib.math2d
Vector2
p646
(dp647
S'y'
F416
sS'x'
F288
sbsg11
F0
sg16
I01
sssbba(igamelib.misc
Beauty
p648
(igamelib.data
SaveData
p649
(dp650
g6
(dp651
S'instance'
p652
(dp653
g10
I01
sg11
F92.239753040050203
sg12
F0.97304322594452697
sg13
I18
sg14
g15
sg16
I01
sg17
(igamelib.math2d
Vector2
p654
(dp655
S'y'
F164
sS'x'
F160
sbsssbba(igamelib.misc
Beauty
p656
(igamelib.data
SaveData
p657
(dp658
g6
(dp659
S'instance'
p660
(dp661
g10
I01
sg11
F173.97381592028071
sg12
F1.7540202539726761
sg13
I18
sg14
g15
sg16
I01
sg17
(igamelib.math2d
Vector2
p662
(dp663
S'y'
F685
sS'x'
F871
sbsssbba(igamelib.misc
Beauty
p664
(igamelib.data
SaveData
p665
(dp666
g6
(dp667
S'instance'
p668
(dp669
g10
I01
sg11
F70.602861747841985
sg12
F1.4934787324450678
sg13
I18
sg14
g15
sg16
I01
sg17
(igamelib.math2d
Vector2
p670
(dp671
S'y'
F14
sS'x'
F88
sbsssbba(igamelib.misc
Beauty
p672
(igamelib.data
SaveData
p673
(dp674
g6
(dp675
S'instance'
p676
(dp677
g10
I01
sg11
F247.78893204888158
sg12
F1.6576484429606655
sg13
I18
sg14
g15
sg16
I01
sg17
(igamelib.math2d
Vector2
p678
(dp679
S'y'
F549
sS'x'
F132
sbsssbba(igamelib.misc
Beauty
p680
(igamelib.data
SaveData
p681
(dp682
g6
(dp683
S'instance'
p684
(dp685
g10
I01
sg11
F65.189159352506081
sg12
F1.4063631629864235
sg13
I18
sg14
g15
sg16
I01
sg17
(igamelib.math2d
Vector2
p686
(dp687
S'y'
F697
sS'x'
F723
sbsssbba(igamelib.misc
Beauty
p688
(igamelib.data
SaveData
p689
(dp690
g6
(dp691
S'instance'
p692
(dp693
g10
I01
sg11
F-1170
sg12
F1
sg13
I10
sg14
g34
sg16
I01
sg17
(igamelib.math2d
Vector2
p694
(dp695
S'y'
F544
sS'x'
F416
sbsssbba(igamelib.misc
Beauty
p696
(igamelib.data
SaveData
p697
(dp698
g6
(dp699
S'instance'
p700
(dp701
g10
I01
sg11
F59.366987540388777
sg12
F1.368136983999428
sg13
I18
sg14
g15
sg16
I01
sg17
(igamelib.math2d
Vector2
p702
(dp703
S'y'
F104
sS'x'
F169
sbsssbba(igamelib.towers
Tank
p704
(igamelib.data
SaveData
p705
(dp706
g6
(dp707
S'instance'
p708
(dp709
g10
I01
sg17
(igamelib.math2d
Vector2
p710
(dp711
S'y'
F480
sS'x'
F672
sbsg11
F-1755
sg16
I01
sssbba(igamelib.misc
Beauty
p712
(igamelib.data
SaveData
p713
(dp714
g6
(dp715
S'instance'
p716
(dp717
g10
I01
sg11
F352.79146040378077
sg12
F1.89322910359334
sg13
I18
sg14
g15
sg16
I01
sg17
(igamelib.math2d
Vector2
p718
(dp719
S'y'
F664
sS'x'
F780
sbsssbba(igamelib.misc
Beauty
p720
(igamelib.data
SaveData
p721
(dp722
g6
(dp723
S'instance'
p724
(dp725
g10
I01
sg11
F174.10864012751929
sg12
F0.62964460656486321
sg13
I18
sg14
g15
sg16
I01
sg17
(igamelib.math2d
Vector2
p726
(dp727
S'y'
F598
sS'x'
F912
sbsssbba(igamelib.misc
Beauty
p728
(igamelib.data
SaveData
p729
(dp730
g6
(dp731
S'instance'
p732
(dp733
g10
I01
sg11
F-1530
sg12
F1
sg13
I10
sg14
g155
sg16
I01
sg17
(igamelib.math2d
Vector2
p734
(dp735
S'y'
F352
sS'x'
F608
sbsssbba(igamelib.buildings
Beergarden
p736
(igamelib.data
SaveData
p737
(dp738
g6
(dp739
S'instance'
p740
(dp741
g10
I01
sg292
(igamelib.pathfinding
Path
p742
(igamelib.data
SaveData
p743
(dp744
g6
(dp745
S'instance'
p746
(dp747
g10
I01
sg299
(igamelib.pathfinding
Waypoint
p748
(igamelib.data
SaveData
p749
(dp750
g6
(dp751
S'instance'
p752
(dp753
g306
Nsg307
(igamelib.pathfinding
Waypoint
p754
(igamelib.data
SaveData
p755
(dp756
g6
(dp757
S'instance'
p758
(dp759
g306
g748
sg307
(igamelib.pathfinding
Waypoint
p760
(igamelib.data
SaveData
p761
(dp762
g6
(dp763
S'instance'
p764
(dp765
g306
g754
sg307
(igamelib.pathfinding
Waypoint
p766
(igamelib.data
SaveData
p767
(dp768
g6
(dp769
S'instance'
p770
(dp771
g306
g760
sg307
Nsg17
(igamelib.math2d
Vector2
p772
(dp773
S'y'
F546
sS'x'
F331
sbsssbbsg17
(igamelib.math2d
Vector2
p774
(dp775
S'y'
F539
sS'x'
F609
sbsssbbsg17
(igamelib.math2d
Vector2
p776
(dp777
S'y'
F352
sS'x'
F608
sbsssbbsg17
(igamelib.math2d
Vector2
p778
(dp779
S'y'
F351
sS'x'
F885
sbsssbbsg16
I00
sssbbsg17
(igamelib.math2d
Vector2
p780
(dp781
S'y'
F352
sS'x'
F928
sbsg11
F-1620
sg16
I01
sssbba(igamelib.misc
Beauty
p782
(igamelib.data
SaveData
p783
(dp784
g6
(dp785
S'instance'
p786
(dp787
g10
I01
sg11
F226.14764763400851
sg12
F0.84782648766815893
sg13
I18
sg14
g15
sg16
I01
sg17
(igamelib.math2d
Vector2
p788
(dp789
S'y'
F12
sS'x'
F11
sbsssbba(igamelib.misc
Beauty
p790
(igamelib.data
SaveData
p791
(dp792
g6
(dp793
S'instance'
p794
(dp795
g10
I01
sg11
F-1530
sg12
F1
sg13
I10
sg14
g34
sg16
I01
sg17
(igamelib.math2d
Vector2
p796
(dp797
S'y'
F352
sS'x'
F800
sbsssbba(igamelib.towers
Bunker
p798
(igamelib.data
SaveData
p799
(dp800
g6
(dp801
S'instance'
p802
(dp803
g10
I01
sg17
(igamelib.math2d
Vector2
p804
(dp805
S'y'
F288
sS'x'
F224
sbsg11
F0
sg16
I01
sssbba(igamelib.misc
Beauty
p806
(igamelib.data
SaveData
p807
(dp808
g6
(dp809
S'instance'
p810
(dp811
g10
I01
sg11
F272.82217240959363
sg12
F1.1278548972005031
sg13
I18
sg14
g15
sg16
I01
sg17
(igamelib.math2d
Vector2
p812
(dp813
S'y'
F643
sS'x'
F925
sbsssbba(igamelib.misc
Beauty
p814
(igamelib.data
SaveData
p815
(dp816
g6
(dp817
S'instance'
p818
(dp819
g10
I01
sg11
F-360
sg12
F1
sg13
I10
sg14
g34
sg16
I01
sg17
(igamelib.math2d
Vector2
p820
(dp821
S'y'
F288
sS'x'
F416
sbsssbba(igamelib.misc
Beauty
p822
(igamelib.data
SaveData
p823
(dp824
g6
(dp825
S'instance'
p826
(dp827
g10
I01
sg11
F326.40679646196361
sg12
F1.2043162399291085
sg13
I18
sg14
g15
sg16
I01
sg17
(igamelib.math2d
Vector2
p828
(dp829
S'y'
F717
sS'x'
F156
sbsssbba(igamelib.misc
Beauty
p830
(igamelib.data
SaveData
p831
(dp832
g6
(dp833
S'instance'
p834
(dp835
g10
I01
sg11
F338.78293152290377
sg12
F1.0667794737320133
sg13
I18
sg14
g15
sg16
I01
sg17
(igamelib.math2d
Vector2
p836
(dp837
S'y'
F597
sS'x'
F811
sbsssbba(igamelib.misc
Beauty
p838
(igamelib.data
SaveData
p839
(dp840
g6
(dp841
S'instance'
p842
(dp843
g10
I01
sg11
F-360
sg12
F1
sg13
I10
sg14
g34
sg16
I01
sg17
(igamelib.math2d
Vector2
p844
(dp845
S'y'
F224
sS'x'
F416
sbsssbba(igamelib.buildings
HQ
p846
(igamelib.data
SaveData
p847
(dp848
g6
(dp849
S'instance'
p850
(dp851
g10
I01
sg17
(igamelib.math2d
Vector2
p852
(dp853
S'y'
F544
sS'x'
F288
sbsg11
F-1170
sg16
I01
sssbbatRp854
.