c__builtin__
set
p1
((lp2
(igamelib.misc
Beauty
p3
(igamelib.data
SaveData
p4
(dp5
S'classes'
p6
(dp7
S'instance'
p8
(dp9
S'__visible'
p10
I01
sS'_rotation'
p11
F290.06014063681221
sS'_Scale'
p12
F0.70740716649045388
sS'_z_index'
p13
I18
sS'_TextureName'
p14
S'deco_tree.png'
p15
sS'__renderCallback'
p16
I01
sS'_position'
p17
(igamelib.math2d
Vector2
p18
(dp19
S'y'
F8
sS'x'
F67
sbsssbba(igamelib.misc
Beauty
p20
(igamelib.data
SaveData
p21
(dp22
g6
(dp23
S'instance'
p24
(dp25
g10
I01
sg11
F112.31625712027414
sg12
F0.73142987775110802
sg13
I18
sg14
S'deco_tree.png'
p26
sg16
I01
sg17
(igamelib.math2d
Vector2
p27
(dp28
S'y'
F713
sS'x'
F519
sbsssbba(igamelib.misc
Markable
p29
(igamelib.data
SaveData
p30
(dp31
g6
(dp32
S'instance'
p33
(dp34
g10
I01
sg11
F-270
sg12
F1
sg13
I10
sg14
S'path_straight.png'
p35
sg16
I01
sg17
(igamelib.math2d
Vector2
p36
(dp37
S'y'
F352
sS'x'
F800
sbsssbba(igamelib.misc
Beauty
p38
(igamelib.data
SaveData
p39
(dp40
g6
(dp41
S'instance'
p42
(dp43
g10
I01
sg11
F35.661081945455194
sg12
F1.8654628517894749
sg13
I18
sg14
g15
sg16
I01
sg17
(igamelib.math2d
Vector2
p44
(dp45
S'y'
F22
sS'x'
F207
sbsssbba(igamelib.misc
Beauty
p46
(igamelib.data
SaveData
p47
(dp48
g6
(dp49
S'instance'
p50
(dp51
g10
I01
sg11
F304.92382810021064
sg12
F0.46855873304167961
sg13
I18
sg14
g15
sg16
I01
sg17
(igamelib.math2d
Vector2
p52
(dp53
S'y'
F219
sS'x'
F447
sbsssbba(igamelib.misc
Beauty
p54
(igamelib.data
SaveData
p55
(dp56
g6
(dp57
S'instance'
p58
(dp59
g10
I01
sg11
F213.5177658304921
sg12
F1.4214131252704616
sg13
I18
sg14
g15
sg16
I01
sg17
(igamelib.math2d
Vector2
p60
(dp61
S'y'
F388
sS'x'
F356
sbsssbba(igamelib.misc
Beauty
p62
(igamelib.data
SaveData
p63
(dp64
g6
(dp65
S'instance'
p66
(dp67
g10
I01
sg11
F193.04852843082028
sg12
F1.6838688894014258
sg13
I18
sg14
g15
sg16
I01
sg17
(igamelib.math2d
Vector2
p68
(dp69
S'y'
F532
sS'x'
F303
sbsssbba(igamelib.misc
Beauty
p70
(igamelib.data
SaveData
p71
(dp72
g6
(dp73
S'instance'
p74
(dp75
g10
I01
sg11
F121.18036404603203
sg12
F0.50410859244701978
sg13
I18
sg14
g26
sg16
I01
sg17
(igamelib.math2d
Vector2
p76
(dp77
S'y'
F641
sS'x'
F222
sbsssbba(igamelib.misc
Markable
p78
(igamelib.data
SaveData
p79
(dp80
g6
(dp81
S'instance'
p82
(dp83
g10
I01
sg11
F-180
sg12
F1
sg13
I10
sg14
S'path_corner.png'
p84
sg16
I01
sg17
(igamelib.math2d
Vector2
p85
(dp86
S'y'
F352
sS'x'
F928
sbsssbba(igamelib.misc
Markable
p87
(igamelib.data
SaveData
p88
(dp89
g6
(dp90
S'instance'
p91
(dp92
g10
I01
sg11
F-90
sg12
F1
sg13
I10
sg14
S'path_straight.png'
p93
sg16
I01
sg17
(igamelib.math2d
Vector2
p94
(dp95
S'y'
F544
sS'x'
F672
sbsssbba(igamelib.misc
Beauty
p96
(igamelib.data
SaveData
p97
(dp98
g6
(dp99
S'instance'
p100
(dp101
g10
I01
sg11
F323.74611956682992
sg12
F1.4689084323022559
sg13
I18
sg14
g15
sg16
I01
sg17
(igamelib.math2d
Vector2
p102
(dp103
S'y'
F469
sS'x'
F183
sbsssbba(igamelib.misc
Beauty
p104
(igamelib.data
SaveData
p105
(dp106
g6
(dp107
S'instance'
p108
(dp109
g10
I01
sg11
F267.50030867120404
sg12
F1.1794140019562149
sg13
I18
sg14
g15
sg16
I01
sg17
(igamelib.math2d
Vector2
p110
(dp111
S'y'
F58
sS'x'
F784
sbsssbba(igamelib.buildings
Beergarden
p112
(igamelib.data
SaveData
p113
(dp114
g6
(dp115
S'instance'
p116
(dp117
g10
I01
sS'path'
p118
(igamelib.pathfinding
Path
p119
(igamelib.data
SaveData
p120
(dp121
g6
(dp122
S'instance'
p123
(dp124
g10
I01
sS'_Start'
p125
(igamelib.pathfinding
Waypoint
p126
(igamelib.data
SaveData
p127
(dp128
g6
(dp129
S'instance'
p130
(dp131
S'_previous'
p132
NsS'_next'
p133
(igamelib.pathfinding
Waypoint
p134
(igamelib.data
SaveData
p135
(dp136
g6
(dp137
S'instance'
p138
(dp139
g132
g126
sg133
(igamelib.pathfinding
Waypoint
p140
(igamelib.data
SaveData
p141
(dp142
g6
(dp143
S'instance'
p144
(dp145
g132
g134
sg133
(igamelib.pathfinding
Waypoint
p146
(igamelib.data
SaveData
p147
(dp148
g6
(dp149
S'instance'
p150
(dp151
g132
g140
sg133
(igamelib.pathfinding
Waypoint
p152
(igamelib.data
SaveData
p153
(dp154
g6
(dp155
S'instance'
p156
(dp157
g132
g146
sg133
(igamelib.pathfinding
Waypoint
p158
(igamelib.data
SaveData
p159
(dp160
g6
(dp161
S'instance'
p162
(dp163
g132
g152
sg133
Nsg17
(igamelib.math2d
Vector2
p164
(dp165
S'y'
F565
sS'x'
F927
sbsssbbsg17
(igamelib.math2d
Vector2
p166
(dp167
S'y'
F353
sS'x'
F927
sbsssbbsg17
(igamelib.math2d
Vector2
p168
(dp169
S'y'
F353
sS'x'
F732
sbsssbbsg17
(igamelib.math2d
Vector2
p170
(dp171
S'y'
F539
sS'x'
F732
sbsssbbsg17
(igamelib.math2d
Vector2
p172
(dp173
S'y'
F540
sS'x'
F678
sbsssbbsg17
(igamelib.math2d
Vector2
p174
(dp175
S'y'
F571
sS'x'
F618
sbsssbbsg16
I00
sssbbsg17
(igamelib.math2d
Vector2
p176
(dp177
S'y'
F544
sS'x'
F608
sbsg11
F-22.5
sg16
I01
sssbba(igamelib.misc
Beauty
p178
(igamelib.data
SaveData
p179
(dp180
g6
(dp181
S'instance'
p182
(dp183
g10
I01
sg11
F184.88066114223511
sg12
F0.99048030442683688
sg13
I18
sg14
g26
sg16
I01
sg17
(igamelib.math2d
Vector2
p184
(dp185
S'y'
F180
sS'x'
F1278
sbsssbba(igamelib.misc
Beauty
p186
(igamelib.data
SaveData
p187
(dp188
g6
(dp189
S'instance'
p190
(dp191
g10
I01
sg11
F319.08003506587107
sg12
F0.50843669742339936
sg13
I18
sg14
g26
sg16
I01
sg17
(igamelib.math2d
Vector2
p192
(dp193
S'y'
F47
sS'x'
F1047
sbsssbba(igamelib.misc
Beauty
p194
(igamelib.data
SaveData
p195
(dp196
g6
(dp197
S'instance'
p198
(dp199
g10
I01
sg11
F180.21731057594027
sg12
F0.95180457773288651
sg13
I18
sg14
g26
sg16
I01
sg17
(igamelib.math2d
Vector2
p200
(dp201
S'y'
F104
sS'x'
F497
sbsssbba(igamelib.misc
Markable
p202
(igamelib.data
SaveData
p203
(dp204
g6
(dp205
S'instance'
p206
(dp207
g10
I01
sg11
F-90
sg12
F1
sg13
I10
sg14
g93
sg16
I01
sg17
(igamelib.math2d
Vector2
p208
(dp209
S'y'
F352
sS'x'
F608
sbsssbba(igamelib.towers
Tank
p210
(igamelib.data
SaveData
p211
(dp212
g6
(dp213
S'instance'
p214
(dp215
g10
I01
sg17
(igamelib.math2d
Vector2
p216
(dp217
S'y'
F288
sS'x'
F928
sbsg11
F-112.5
sg16
I01
sssbba(igamelib.misc
Beauty
p218
(igamelib.data
SaveData
p219
(dp220
g6
(dp221
S'instance'
p222
(dp223
g10
I01
sg11
F6.1533582810198739
sg12
F1.6023037881714177
sg13
I18
sg14
g26
sg16
I01
sg17
(igamelib.math2d
Vector2
p224
(dp225
S'y'
F231
sS'x'
F273
sbsssbba(igamelib.misc
Beauty
p226
(igamelib.data
SaveData
p227
(dp228
g6
(dp229
S'instance'
p230
(dp231
g10
I01
sg11
F23.900546572563186
sg12
F1.8599017279858381
sg13
I18
sg14
g15
sg16
I01
sg17
(igamelib.math2d
Vector2
p232
(dp233
S'y'
F8
sS'x'
F1067
sbsssbba(igamelib.misc
Beauty
p234
(igamelib.data
SaveData
p235
(dp236
g6
(dp237
S'instance'
p238
(dp239
g10
I01
sg11
F188.43962321227369
sg12
F1.4129683333092427
sg13
I18
sg14
g15
sg16
I01
sg17
(igamelib.math2d
Vector2
p240
(dp241
S'y'
F56
sS'x'
F717
sbsssbba(igamelib.misc
Beauty
p242
(igamelib.data
SaveData
p243
(dp244
g6
(dp245
S'instance'
p246
(dp247
g10
I01
sg11
F106.89949702049832
sg12
F1.8104284661522023
sg13
I18
sg14
g26
sg16
I01
sg17
(igamelib.math2d
Vector2
p248
(dp249
S'y'
F708
sS'x'
F761
sbsssbba(igamelib.misc
Beauty
p250
(igamelib.data
SaveData
p251
(dp252
g6
(dp253
S'instance'
p254
(dp255
g10
I01
sg11
F281.23769257723683
sg12
F1.7153142917924409
sg13
I18
sg14
g26
sg16
I01
sg17
(igamelib.math2d
Vector2
p256
(dp257
S'y'
F681
sS'x'
F546
sbsssbba(igamelib.buildings
FastFood
p258
(igamelib.data
SaveData
p259
(dp260
g6
(dp261
S'instance'
p262
(dp263
g10
I01
sg118
(igamelib.pathfinding
Path
p264
(igamelib.data
SaveData
p265
(dp266
g6
(dp267
S'instance'
p268
(dp269
g10
I01
sg125
(igamelib.pathfinding
Waypoint
p270
(igamelib.data
SaveData
p271
(dp272
g6
(dp273
S'instance'
p274
(dp275
g132
Nsg133
(igamelib.pathfinding
Waypoint
p276
(igamelib.data
SaveData
p277
(dp278
g6
(dp279
S'instance'
p280
(dp281
g132
g270
sg133
(igamelib.pathfinding
Waypoint
p282
(igamelib.data
SaveData
p283
(dp284
g6
(dp285
S'instance'
p286
(dp287
g132
g276
sg133
(igamelib.pathfinding
Waypoint
p288
(igamelib.data
SaveData
p289
(dp290
g6
(dp291
S'instance'
p292
(dp293
g132
g282
sg133
Nsg17
(igamelib.math2d
Vector2
p294
(dp295
S'y'
F567
sS'x'
F926
sbsssbbsg17
(igamelib.math2d
Vector2
p296
(dp297
S'y'
F353
sS'x'
F927
sbsssbbsg17
(igamelib.math2d
Vector2
p298
(dp299
S'y'
F351
sS'x'
F586
sbsssbbsg17
(igamelib.math2d
Vector2
p300
(dp301
S'y'
F366
sS'x'
F560
sbsssbbsg16
I00
sssbbsg17
(igamelib.math2d
Vector2
p302
(dp303
S'y'
F352
sS'x'
F544
sbsg11
F-90
sg16
I01
sssbba(igamelib.misc
Markable
p304
(igamelib.data
SaveData
p305
(dp306
g6
(dp307
S'instance'
p308
(dp309
g10
I01
sg11
F-180
sg12
F1
sg13
I10
sg14
S'path_T.png'
p310
sg16
I01
sg17
(igamelib.math2d
Vector2
p311
(dp312
S'y'
F352
sS'x'
F736
sbsssbba(igamelib.misc
Beauty
p313
(igamelib.data
SaveData
p314
(dp315
g6
(dp316
S'instance'
p317
(dp318
g10
I01
sg11
F79.83358894032844
sg12
F0.48980000033745802
sg13
I18
sg14
g15
sg16
I01
sg17
(igamelib.math2d
Vector2
p319
(dp320
S'y'
F446
sS'x'
F372
sbsssbba(igamelib.misc
Beauty
p321
(igamelib.data
SaveData
p322
(dp323
g6
(dp324
S'instance'
p325
(dp326
g10
I01
sg11
F286.26054570642043
sg12
F1.2607063212198901
sg13
I18
sg14
g26
sg16
I01
sg17
(igamelib.math2d
Vector2
p327
(dp328
S'y'
F609
sS'x'
F1077
sbsssbba(igamelib.misc
Beauty
p329
(igamelib.data
SaveData
p330
(dp331
g6
(dp332
S'instance'
p333
(dp334
g10
I01
sg11
F22.800798664319885
sg12
F1.2016131218508768
sg13
I18
sg14
g15
sg16
I01
sg17
(igamelib.math2d
Vector2
p335
(dp336
S'y'
F383
sS'x'
F65
sbsssbba(igamelib.misc
Beauty
p337
(igamelib.data
SaveData
p338
(dp339
g6
(dp340
S'instance'
p341
(dp342
g10
I01
sg11
F227.74141319425001
sg12
F1.5900146256477621
sg13
I18
sg14
g15
sg16
I01
sg17
(igamelib.math2d
Vector2
p343
(dp344
S'y'
F81
sS'x'
F119
sbsssbba(igamelib.misc
Beauty
p345
(igamelib.data
SaveData
p346
(dp347
g6
(dp348
S'instance'
p349
(dp350
g10
I01
sg11
F238.12498342602635
sg12
F1.8248111113552268
sg13
I18
sg14
g15
sg16
I01
sg17
(igamelib.math2d
Vector2
p351
(dp352
S'y'
F89
sS'x'
F1075
sbsssbba(igamelib.misc
Markable
p353
(igamelib.data
SaveData
p354
(dp355
g6
(dp356
S'instance'
p357
(dp358
g10
I01
sg11
F0
sg12
F1
sg13
I10
sg14
g35
sg16
I01
sg17
(igamelib.math2d
Vector2
p359
(dp360
S'y'
F544
sS'x'
F928
sbsssbba(igamelib.misc
Beauty
p361
(igamelib.data
SaveData
p362
(dp363
g6
(dp364
S'instance'
p365
(dp366
g10
I01
sg11
F277.17289608405065
sg12
F0.80737055295739668
sg13
I18
sg14
g15
sg16
I01
sg17
(igamelib.math2d
Vector2
p367
(dp368
S'y'
F75
sS'x'
F45
sbsssbba(igamelib.misc
Beauty
p369
(igamelib.data
SaveData
p370
(dp371
g6
(dp372
S'instance'
p373
(dp374
g10
I01
sg11
F280.8365564869369
sg12
F1.4528616358662636
sg13
I18
sg14
g15
sg16
I01
sg17
(igamelib.math2d
Vector2
p375
(dp376
S'y'
F469
sS'x'
F265
sbsssbba(igamelib.misc
Beauty
p377
(igamelib.data
SaveData
p378
(dp379
g6
(dp380
S'instance'
p381
(dp382
g10
I01
sg11
F22.203513678140318
sg12
F1.6340539679138051
sg13
I18
sg14
g15
sg16
I01
sg17
(igamelib.math2d
Vector2
p383
(dp384
S'y'
F412
sS'x'
F214
sbsssbba(igamelib.misc
Beauty
p385
(igamelib.data
SaveData
p386
(dp387
g6
(dp388
S'instance'
p389
(dp390
g10
I01
sg11
F344.71268395821215
sg12
F0.99114248589373188
sg13
I18
sg14
g15
sg16
I01
sg17
(igamelib.math2d
Vector2
p391
(dp392
S'y'
F104
sS'x'
F825
sbsssbba(igamelib.misc
Beauty
p393
(igamelib.data
SaveData
p394
(dp395
g6
(dp396
S'instance'
p397
(dp398
g10
I01
sg11
F259.38988440510184
sg12
F0.72959558609184416
sg13
I18
sg14
g15
sg16
I01
sg17
(igamelib.math2d
Vector2
p399
(dp400
S'y'
F451
sS'x'
F98
sbsssbba(igamelib.misc
Beauty
p401
(igamelib.data
SaveData
p402
(dp403
g6
(dp404
S'instance'
p405
(dp406
g10
I01
sg11
F30.190410330227337
sg12
F1.3588935632609371
sg13
I18
sg14
g26
sg16
I01
sg17
(igamelib.math2d
Vector2
p407
(dp408
S'y'
F268
sS'x'
F118
sbsssbba(igamelib.misc
Beauty
p409
(igamelib.data
SaveData
p410
(dp411
g6
(dp412
S'instance'
p413
(dp414
g10
I01
sg11
F129.95478384056884
sg12
F0.84177958194848679
sg13
I18
sg14
g26
sg16
I01
sg17
(igamelib.math2d
Vector2
p415
(dp416
S'y'
F23
sS'x'
F1238
sbsssbba(igamelib.misc
Beauty
p417
(igamelib.data
SaveData
p418
(dp419
g6
(dp420
S'instance'
p421
(dp422
g10
I01
sg11
F28.395906349887312
sg12
F1.9034900768193348
sg13
I18
sg14
g15
sg16
I01
sg17
(igamelib.math2d
Vector2
p423
(dp424
S'y'
F225
sS'x'
F35
sbsssbba(igamelib.misc
Beauty
p425
(igamelib.data
SaveData
p426
(dp427
g6
(dp428
S'instance'
p429
(dp430
g10
I01
sg11
F45.50837969072775
sg12
F1.4021284568044949
sg13
I18
sg14
g15
sg16
I01
sg17
(igamelib.math2d
Vector2
p431
(dp432
S'y'
F33
sS'x'
F301
sbsssbba(igamelib.misc
Beauty
p433
(igamelib.data
SaveData
p434
(dp435
g6
(dp436
S'instance'
p437
(dp438
g10
I01
sg11
F57.329114397430885
sg12
F0.78338192968074472
sg13
I18
sg14
g26
sg16
I01
sg17
(igamelib.math2d
Vector2
p439
(dp440
S'y'
F285
sS'x'
F320
sbsssbba(igamelib.misc
Beauty
p441
(igamelib.data
SaveData
p442
(dp443
g6
(dp444
S'instance'
p445
(dp446
g10
I01
sg11
F356.22954644168743
sg12
F1.1010681031300207
sg13
I18
sg14
g15
sg16
I01
sg17
(igamelib.math2d
Vector2
p447
(dp448
S'y'
F486
sS'x'
F352
sbsssbba(igamelib.misc
Markable
p449
(igamelib.data
SaveData
p450
(dp451
g6
(dp452
S'instance'
p453
(dp454
g10
I01
sg11
F-270
sg12
F1
sg13
I10
sg14
g35
sg16
I01
sg17
(igamelib.math2d
Vector2
p455
(dp456
S'y'
F352
sS'x'
F672
sbsssbba(igamelib.misc
Markable
p457
(igamelib.data
SaveData
p458
(dp459
g6
(dp460
S'instance'
p461
(dp462
g10
I01
sg11
F0
sg12
F1
sg13
I10
sg14
S'path_straight.png'
p463
sg16
I01
sg17
(igamelib.math2d
Vector2
p464
(dp465
S'y'
F480
sS'x'
F736
sbsssbba(igamelib.misc
Markable
p466
(igamelib.data
SaveData
p467
(dp468
g6
(dp469
S'instance'
p470
(dp471
g10
I01
sg11
F0
sg12
F1
sg13
I10
sg14
g35
sg16
I01
sg17
(igamelib.math2d
Vector2
p472
(dp473
S'y'
F416
sS'x'
F928
sbsssbba(igamelib.misc
Beauty
p474
(igamelib.data
SaveData
p475
(dp476
g6
(dp477
S'instance'
p478
(dp479
g10
I01
sg11
F79.234864796343913
sg12
F0.49368308957604673
sg13
I18
sg14
g26
sg16
I01
sg17
(igamelib.math2d
Vector2
p480
(dp481
S'y'
F696
sS'x'
F1033
sbsssbba(igamelib.misc
Beauty
p482
(igamelib.data
SaveData
p483
(dp484
g6
(dp485
S'instance'
p486
(dp487
g10
I01
sg11
F264.17248471382709
sg12
F1.6073422921844693
sg13
I18
sg14
g26
sg16
I01
sg17
(igamelib.math2d
Vector2
p488
(dp489
S'y'
F531
sS'x'
F383
sbsssbba(igamelib.buildings
HQ
p490
(igamelib.data
SaveData
p491
(dp492
g6
(dp493
S'instance'
p494
(dp495
g10
I01
sg17
(igamelib.math2d
Vector2
p496
(dp497
S'y'
F608
sS'x'
F928
sbsg11
F0
sg16
I01
sssbba(igamelib.misc
Markable
p498
(igamelib.data
SaveData
p499
(dp500
g6
(dp501
S'instance'
p502
(dp503
g10
I01
sg11
F0
sg12
F1
sg13
I10
sg14
g35
sg16
I01
sg17
(igamelib.math2d
Vector2
p504
(dp505
S'y'
F480
sS'x'
F928
sbsssbba(igamelib.misc
Beauty
p506
(igamelib.data
SaveData
p507
(dp508
g6
(dp509
S'instance'
p510
(dp511
g10
I01
sg11
F26.967841803794478
sg12
F0.50199329666496428
sg13
I18
sg14
g26
sg16
I01
sg17
(igamelib.math2d
Vector2
p512
(dp513
S'y'
F119
sS'x'
F537
sbsssbba(igamelib.towers
Tank
p514
(igamelib.data
SaveData
p515
(dp516
g6
(dp517
S'instance'
p518
(dp519
g10
I01
sg17
(igamelib.math2d
Vector2
p520
(dp521
S'y'
F480
sS'x'
F864
sbsg11
F-135
sg16
I01
sssbba(igamelib.misc
Beauty
p522
(igamelib.data
SaveData
p523
(dp524
g6
(dp525
S'instance'
p526
(dp527
g10
I01
sg11
F176.61257716131138
sg12
F0.74022745103977261
sg13
I18
sg14
g26
sg16
I01
sg17
(igamelib.math2d
Vector2
p528
(dp529
S'y'
F177
sS'x'
F859
sbsssbba(igamelib.misc
Beauty
p530
(igamelib.data
SaveData
p531
(dp532
g6
(dp533
S'instance'
p534
(dp535
g10
I01
sg11
F261.57686312605762
sg12
F0.80636143239224711
sg13
I18
sg14
g15
sg16
I01
sg17
(igamelib.math2d
Vector2
p536
(dp537
S'y'
F32
sS'x'
F6
sbsssbba(igamelib.misc
Markable
p538
(igamelib.data
SaveData
p539
(dp540
g6
(dp541
S'instance'
p542
(dp543
g10
I01
sg11
F-270
sg12
F1
sg13
I10
sg14
S'path_corner.png'
p544
sg16
I01
sg17
(igamelib.math2d
Vector2
p545
(dp546
S'y'
F544
sS'x'
F736
sbsssbba(igamelib.misc
Beauty
p547
(igamelib.data
SaveData
p548
(dp549
g6
(dp550
S'instance'
p551
(dp552
g10
I01
sg11
F298.31411204938252
sg12
F1.1938556261118263
sg13
I18
sg14
g26
sg16
I01
sg17
(igamelib.math2d
Vector2
p553
(dp554
S'y'
F508
sS'x'
F1271
sbsssbba(igamelib.misc
Beauty
p555
(igamelib.data
SaveData
p556
(dp557
g6
(dp558
S'instance'
p559
(dp560
g10
I01
sg11
F232.88801237417829
sg12
F1.0114993839987607
sg13
I18
sg14
g15
sg16
I01
sg17
(igamelib.math2d
Vector2
p561
(dp562
S'y'
F128
sS'x'
F17
sbsssbba(igamelib.misc
Beauty
p563
(igamelib.data
SaveData
p564
(dp565
g6
(dp566
S'instance'
p567
(dp568
g10
I01
sg11
F126.72031902085396
sg12
F1.3895267795099349
sg13
I18
sg14
g15
sg16
I01
sg17
(igamelib.math2d
Vector2
p569
(dp570
S'y'
F150
sS'x'
F257
sbsssbba(igamelib.towers
Tank
p571
(igamelib.data
SaveData
p572
(dp573
g6
(dp574
S'instance'
p575
(dp576
g10
I01
sg17
(igamelib.math2d
Vector2
p577
(dp578
S'y'
F416
sS'x'
F992
sbsg11
F-202.5
sg16
I01
sssbba(igamelib.misc
Beauty
p579
(igamelib.data
SaveData
p580
(dp581
g6
(dp582
S'instance'
p583
(dp584
g10
I01
sg11
F293.00223251974342
sg12
F1.9072181057524396
sg13
I18
sg14
g15
sg16
I01
sg17
(igamelib.math2d
Vector2
p585
(dp586
S'y'
F695
sS'x'
F455
sbsssbba(igamelib.misc
Beauty
p587
(igamelib.data
SaveData
p588
(dp589
g6
(dp590
S'instance'
p591
(dp592
g10
I01
sg11
F313.1180842542235
sg12
F1.0461588641556114
sg13
I18
sg14
g15
sg16
I01
sg17
(igamelib.math2d
Vector2
p593
(dp594
S'y'
F12
sS'x'
F111
sbsssbba(igamelib.misc
Beauty
p595
(igamelib.data
SaveData
p596
(dp597
g6
(dp598
S'instance'
p599
(dp600
g10
I01
sg11
F186.63969788539063
sg12
F1.9334428414226623
sg13
I18
sg14
g26
sg16
I01
sg17
(igamelib.math2d
Vector2
p601
(dp602
S'y'
F668
sS'x'
F27
sbsssbba(igamelib.misc
Markable
p603
(igamelib.data
SaveData
p604
(dp605
g6
(dp606
S'instance'
p607
(dp608
g10
I01
sg11
F-270
sg12
F1
sg13
I10
sg14
g35
sg16
I01
sg17
(igamelib.math2d
Vector2
p609
(dp610
S'y'
F352
sS'x'
F864
sbsssbba(igamelib.misc
Beauty
p611
(igamelib.data
SaveData
p612
(dp613
g6
(dp614
S'instance'
p615
(dp616
g10
I01
sg11
F-36.05643781604941
sg12
F1.6887283319251638
sg13
I18
sg14
g26
sg16
I01
sg17
(igamelib.math2d
Vector2
p617
(dp618
S'y'
F148
sS'x'
F330
sbsssbba(igamelib.misc
Beauty
p619
(igamelib.data
SaveData
p620
(dp621
g6
(dp622
S'instance'
p623
(dp624
g10
I01
sg11
F67.544128215748785
sg12
F0.93957409628541821
sg13
I18
sg14
g26
sg16
I01
sg17
(igamelib.math2d
Vector2
p625
(dp626
S'y'
F711
sS'x'
F584
sbsssbba(igamelib.misc
Beauty
p627
(igamelib.data
SaveData
p628
(dp629
g6
(dp630
S'instance'
p631
(dp632
g10
I01
sg11
F50.667275000965155
sg12
F1.5387450405622156
sg13
I18
sg14
g26
sg16
I01
sg17
(igamelib.math2d
Vector2
p633
(dp634
S'y'
F494
sS'x'
F65
sbsssbba(igamelib.misc
Beauty
p635
(igamelib.data
SaveData
p636
(dp637
g6
(dp638
S'instance'
p639
(dp640
g10
I01
sg11
F103.67327533532023
sg12
F0.92217640872396578
sg13
I18
sg14
g26
sg16
I01
sg17
(igamelib.math2d
Vector2
p641
(dp642
S'y'
F56
sS'x'
F491
sbsssbba(igamelib.misc
Beauty
p643
(igamelib.data
SaveData
p644
(dp645
g6
(dp646
S'instance'
p647
(dp648
g10
I01
sg11
F97.063901755096339
sg12
F0.70664555118452121
sg13
I18
sg14
g15
sg16
I01
sg17
(igamelib.math2d
Vector2
p649
(dp650
S'y'
F115
sS'x'
F61
sbsssbba(igamelib.misc
Beauty
p651
(igamelib.data
SaveData
p652
(dp653
g6
(dp654
S'instance'
p655
(dp656
g10
I01
sg11
F297.22734977878105
sg12
F1.2340725968360469
sg13
I18
sg14
g15
sg16
I01
sg17
(igamelib.math2d
Vector2
p657
(dp658
S'y'
F90
sS'x'
F258
sbsssbba(igamelib.misc
Beauty
p659
(igamelib.data
SaveData
p660
(dp661
g6
(dp662
S'instance'
p663
(dp664
g10
I01
sg11
F31.398892568158324
sg12
F0.85977743092244419
sg13
I18
sg14
g26
sg16
I01
sg17
(igamelib.math2d
Vector2
p665
(dp666
S'y'
F693
sS'x'
F942
sbsssbba(igamelib.misc
Markable
p667
(igamelib.data
SaveData
p668
(dp669
g6
(dp670
S'instance'
p671
(dp672
g10
I01
sg11
F0
sg12
F1
sg13
I10
sg14
g463
sg16
I01
sg17
(igamelib.math2d
Vector2
p673
(dp674
S'y'
F416
sS'x'
F736
sbsssbba(igamelib.misc
Beauty
p675
(igamelib.data
SaveData
p676
(dp677
g6
(dp678
S'instance'
p679
(dp680
g10
I01
sg11
F270.54315516425686
sg12
F1.0899173684140682
sg13
I18
sg14
g26
sg16
I01
sg17
(igamelib.math2d
Vector2
p681
(dp682
S'y'
F71
sS'x'
F541
sbsssbba(igamelib.misc
Beauty
p683
(igamelib.data
SaveData
p684
(dp685
g6
(dp686
S'instance'
p687
(dp688
g10
I01
sg11
F309.14499066285265
sg12
F1.8026667287913902
sg13
I18
sg14
g15
sg16
I01
sg17
(igamelib.math2d
Vector2
p689
(dp690
S'y'
F70
sS'x'
F379
sbsssbbatRp691
.