c__builtin__
set
p1
((lp2
(igamelib.misc
Markable
p3
(igamelib.data
SaveData
p4
(dp5
S'classes'
p6
(dp7
S'instance'
p8
(dp9
S'__visible'
p10
I01
sS'_rotation'
p11
F-990
sS'_Scale'
p12
F1
sS'_z_index'
p13
I10
sS'_TextureName'
p14
S'path_straight.png'
p15
sS'__renderCallback'
p16
I01
sS'_position'
p17
(igamelib.math2d
Vector2
p18
(dp19
S'y'
F224
sS'x'
F480
sbsssbba(igamelib.misc
Beauty
p20
(igamelib.data
SaveData
p21
(dp22
g6
(dp23
S'instance'
p24
(dp25
g10
I01
sg11
F319.08003506587107
sg12
F0.50843669742339936
sg13
I18
sg14
S'deco_tree.png'
p26
sg16
I01
sg17
(igamelib.math2d
Vector2
p27
(dp28
S'y'
F47
sS'x'
F1047
sbsssbba(igamelib.misc
Beauty
p29
(igamelib.data
SaveData
p30
(dp31
g6
(dp32
S'instance'
p33
(dp34
g10
I01
sg11
F252.95251658319316
sg12
F1.4569400157054404
sg13
I18
sg14
S'deco_tree.png'
p35
sg16
I01
sg17
(igamelib.math2d
Vector2
p36
(dp37
S'y'
F285
sS'x'
F23
sbsssbba(igamelib.misc
Beauty
p38
(igamelib.data
SaveData
p39
(dp40
g6
(dp41
S'instance'
p42
(dp43
g10
I01
sg11
F343.19379961315548
sg12
F1.0478193629913233
sg13
I18
sg14
g35
sg16
I01
sg17
(igamelib.math2d
Vector2
p44
(dp45
S'y'
F74
sS'x'
F584
sbsssbba(igamelib.misc
Markable
p46
(igamelib.data
SaveData
p47
(dp48
g6
(dp49
S'instance'
p50
(dp51
g10
I01
sg11
F-1170
sg12
F1
sg13
I10
sg14
g15
sg16
I01
sg17
(igamelib.math2d
Vector2
p52
(dp53
S'y'
F480
sS'x'
F928
sbsssbba(igamelib.misc
Markable
p54
(igamelib.data
SaveData
p55
(dp56
g6
(dp57
S'instance'
p58
(dp59
g10
I01
sg11
F-1080
sg12
F1
sg13
I10
sg14
g15
sg16
I01
sg17
(igamelib.math2d
Vector2
p60
(dp61
S'y'
F288
sS'x'
F864
sbsssbba(igamelib.buildings
Beergarden
p62
(igamelib.data
SaveData
p63
(dp64
g6
(dp65
S'instance'
p66
(dp67
g10
I01
sS'path'
p68
(igamelib.pathfinding
Path
p69
(igamelib.data
SaveData
p70
(dp71
g6
(dp72
S'instance'
p73
(dp74
g10
I01
sS'_Start'
p75
(igamelib.pathfinding
Waypoint
p76
(igamelib.data
SaveData
p77
(dp78
g6
(dp79
S'instance'
p80
(dp81
S'_previous'
p82
NsS'_next'
p83
(igamelib.pathfinding
Waypoint
p84
(igamelib.data
SaveData
p85
(dp86
g6
(dp87
S'instance'
p88
(dp89
g82
g76
sg83
(igamelib.pathfinding
Waypoint
p90
(igamelib.data
SaveData
p91
(dp92
g6
(dp93
S'instance'
p94
(dp95
g82
g84
sg83
(igamelib.pathfinding
Waypoint
p96
(igamelib.data
SaveData
p97
(dp98
g6
(dp99
S'instance'
p100
(dp101
g82
g90
sg83
(igamelib.pathfinding
Waypoint
p102
(igamelib.data
SaveData
p103
(dp104
g6
(dp105
S'instance'
p106
(dp107
g82
g96
sg83
(igamelib.pathfinding
Waypoint
p108
(igamelib.data
SaveData
p109
(dp110
g6
(dp111
S'instance'
p112
(dp113
g82
g102
sg83
Nsg17
(igamelib.math2d
Vector2
p114
(dp115
S'y'
F568.09788654060071
sS'x'
F605.82869855394881
sbsssbbsg17
(igamelib.math2d
Vector2
p116
(dp117
S'y'
F481.24582869855396
sS'x'
F607.25250278086764
sbsssbbsg17
(igamelib.math2d
Vector2
p118
(dp119
S'y'
F481.24582869855396
sS'x'
F864.24916573971086
sbsssbbsg17
(igamelib.math2d
Vector2
p120
(dp121
S'y'
F226.384872080089
sS'x'
F863.53726362625139
sbsssbbsg17
(igamelib.math2d
Vector2
p122
(dp123
S'y'
F226.384872080089
sS'x'
F413.615127919911
sbsssbbsg17
(igamelib.math2d
Vector2
p124
(dp125
S'y'
F367.34149054505008
sS'x'
F412.90322580645164
sbsssbbsg16
I00
sssbbsg17
(igamelib.math2d
Vector2
p126
(dp127
S'y'
F416
sS'x'
F416
sbsg11
F-270
sg16
I01
sssbba(igamelib.towers
Tank
p128
(igamelib.data
SaveData
p129
(dp130
g6
(dp131
S'instance'
p132
(dp133
g10
I01
sg17
(igamelib.math2d
Vector2
p134
(dp135
S'y'
F160
sS'x'
F608
sbsg11
F-1260
sg16
I01
sssbba(igamelib.misc
Beauty
p136
(igamelib.data
SaveData
p137
(dp138
g6
(dp139
S'instance'
p140
(dp141
g10
I01
sg11
F324.53552182269635
sg12
F0.86793773512340211
sg13
I18
sg14
g35
sg16
I01
sg17
(igamelib.math2d
Vector2
p142
(dp143
S'y'
F279
sS'x'
F72
sbsssbba(igamelib.misc
Beauty
p144
(igamelib.data
SaveData
p145
(dp146
g6
(dp147
S'instance'
p148
(dp149
g10
I01
sg11
F51.688040860589723
sg12
F1.7318385550035413
sg13
I18
sg14
g35
sg16
I01
sg17
(igamelib.math2d
Vector2
p150
(dp151
S'y'
F306
sS'x'
F953
sbsssbba(igamelib.misc
Beauty
p152
(igamelib.data
SaveData
p153
(dp154
g6
(dp155
S'instance'
p156
(dp157
g10
I01
sg11
F147.69056552283544
sg12
F1.1844783690647112
sg13
I18
sg14
g35
sg16
I01
sg17
(igamelib.math2d
Vector2
p158
(dp159
S'y'
F639
sS'x'
F46
sbsssbba(igamelib.misc
Beauty
p160
(igamelib.data
SaveData
p161
(dp162
g6
(dp163
S'instance'
p164
(dp165
g10
I01
sg11
F298.31411204938252
sg12
F1.1938556261118263
sg13
I18
sg14
g26
sg16
I01
sg17
(igamelib.math2d
Vector2
p166
(dp167
S'y'
F508
sS'x'
F1271
sbsssbba(igamelib.misc
Markable
p168
(igamelib.data
SaveData
p169
(dp170
g6
(dp171
S'instance'
p172
(dp173
g10
I01
sg11
F-810
sg12
F1
sg13
I10
sg14
g15
sg16
I01
sg17
(igamelib.math2d
Vector2
p174
(dp175
S'y'
F480
sS'x'
F672
sbsssbba(igamelib.misc
Markable
p176
(igamelib.data
SaveData
p177
(dp178
g6
(dp179
S'instance'
p180
(dp181
g10
I01
sg11
F-900
sg12
F1
sg13
I10
sg14
S'path_corner.png'
p182
sg16
I01
sg17
(igamelib.math2d
Vector2
p183
(dp184
S'y'
F480
sS'x'
F992
sbsssbba(igamelib.misc
Markable
p185
(igamelib.data
SaveData
p186
(dp187
g6
(dp188
S'instance'
p189
(dp190
g10
I01
sg11
F-1440
sg12
F1
sg13
I10
sg14
g15
sg16
I01
sg17
(igamelib.math2d
Vector2
p191
(dp192
S'y'
F160
sS'x'
F736
sbsssbba(igamelib.misc
Beauty
p193
(igamelib.data
SaveData
p194
(dp195
g6
(dp196
S'instance'
p197
(dp198
g10
I01
sg11
F43.878030162804421
sg12
F0.98011224802978281
sg13
I18
sg14
g35
sg16
I01
sg17
(igamelib.math2d
Vector2
p199
(dp200
S'y'
F667
sS'x'
F345
sbsssbba(igamelib.misc
Markable
p201
(igamelib.data
SaveData
p202
(dp203
g6
(dp204
S'instance'
p205
(dp206
g10
I01
sg11
F-180
sg12
F1
sg13
I10
sg14
S'path_straight.png'
p207
sg16
I01
sg17
(igamelib.math2d
Vector2
p208
(dp209
S'y'
F160
sS'x'
F416
sbsssbba(igamelib.misc
Markable
p210
(igamelib.data
SaveData
p211
(dp212
g6
(dp213
S'instance'
p214
(dp215
g10
I01
sg11
F-810
sg12
F1
sg13
I10
sg14
g15
sg16
I01
sg17
(igamelib.math2d
Vector2
p216
(dp217
S'y'
F224
sS'x'
F544
sbsssbba(igamelib.misc
Beauty
p218
(igamelib.data
SaveData
p219
(dp220
g6
(dp221
S'instance'
p222
(dp223
g10
I01
sg11
F21.413572206046897
sg12
F1.4674689648905952
sg13
I18
sg14
g35
sg16
I01
sg17
(igamelib.math2d
Vector2
p224
(dp225
S'y'
F511
sS'x'
F485
sbsssbba(igamelib.misc
Markable
p226
(igamelib.data
SaveData
p227
(dp228
g6
(dp229
S'instance'
p230
(dp231
g10
I01
sg11
F-1080
sg12
F1
sg13
I10
sg14
g15
sg16
I01
sg17
(igamelib.math2d
Vector2
p232
(dp233
S'y'
F352
sS'x'
F864
sbsssbba(igamelib.misc
Beauty
p234
(igamelib.data
SaveData
p235
(dp236
g6
(dp237
S'instance'
p238
(dp239
g10
I01
sg11
F178.29380273731391
sg12
F1.8276546915470278
sg13
I18
sg14
g35
sg16
I01
sg17
(igamelib.math2d
Vector2
p240
(dp241
S'y'
F597
sS'x'
F13
sbsssbba(igamelib.misc
Beauty
p242
(igamelib.data
SaveData
p243
(dp244
g6
(dp245
S'instance'
p246
(dp247
g10
I01
sg11
F49.169509555254045
sg12
F1.0983152232281896
sg13
I18
sg14
g35
sg16
I01
sg17
(igamelib.math2d
Vector2
p248
(dp249
S'y'
F699
sS'x'
F24
sbsssbba(igamelib.misc
Markable
p250
(igamelib.data
SaveData
p251
(dp252
g6
(dp253
S'instance'
p254
(dp255
g10
I01
sg11
F-810
sg12
F1
sg13
I10
sg14
g15
sg16
I01
sg17
(igamelib.math2d
Vector2
p256
(dp257
S'y'
F224
sS'x'
F608
sbsssbba(igamelib.misc
Beauty
p258
(igamelib.data
SaveData
p259
(dp260
g6
(dp261
S'instance'
p262
(dp263
g10
I01
sg11
F129.95478384056884
sg12
F0.84177958194848679
sg13
I18
sg14
g26
sg16
I01
sg17
(igamelib.math2d
Vector2
p264
(dp265
S'y'
F23
sS'x'
F1238
sbsssbba(igamelib.misc
Beauty
p266
(igamelib.data
SaveData
p267
(dp268
g6
(dp269
S'instance'
p270
(dp271
g10
I01
sg11
F1.9771398475084156
sg12
F1.3087867892512617
sg13
I18
sg14
g35
sg16
I01
sg17
(igamelib.math2d
Vector2
p272
(dp273
S'y'
F254
sS'x'
F994
sbsssbba(igamelib.misc
Beauty
p274
(igamelib.data
SaveData
p275
(dp276
g6
(dp277
S'instance'
p278
(dp279
g10
I01
sg11
F184.88066114223511
sg12
F0.99048030442683688
sg13
I18
sg14
g26
sg16
I01
sg17
(igamelib.math2d
Vector2
p280
(dp281
S'y'
F180
sS'x'
F1278
sbsssbba(igamelib.misc
Beauty
p282
(igamelib.data
SaveData
p283
(dp284
g6
(dp285
S'instance'
p286
(dp287
g10
I01
sg11
F311.71428702229724
sg12
F1.1290016909460721
sg13
I18
sg14
g35
sg16
I01
sg17
(igamelib.math2d
Vector2
p288
(dp289
S'y'
F392
sS'x'
F515
sbsssbba(igamelib.misc
Beauty
p290
(igamelib.data
SaveData
p291
(dp292
g6
(dp293
S'instance'
p294
(dp295
g10
I01
sg11
F213.19856805972194
sg12
F0.81345612682100632
sg13
I18
sg14
S'deco_tree.png'
p296
sg16
I01
sg17
(igamelib.math2d
Vector2
p297
(dp298
S'y'
F417.88654060066744
sS'x'
F784.51612903225805
sbsssbba(igamelib.misc
Markable
p299
(igamelib.data
SaveData
p300
(dp301
g6
(dp302
S'instance'
p303
(dp304
g10
I01
sg11
F-1530
sg12
F1
sg13
I10
sg14
g207
sg16
I01
sg17
(igamelib.math2d
Vector2
p305
(dp306
S'y'
F96
sS'x'
F864
sbsssbba(igamelib.misc
Markable
p307
(igamelib.data
SaveData
p308
(dp309
g6
(dp310
S'instance'
p311
(dp312
g10
I01
sg11
F-810
sg12
F1
sg13
I10
sg14
g15
sg16
I01
sg17
(igamelib.math2d
Vector2
p313
(dp314
S'y'
F480
sS'x'
F800
sbsssbba(igamelib.misc
Markable
p315
(igamelib.data
SaveData
p316
(dp317
g6
(dp318
S'instance'
p319
(dp320
g10
I01
sg11
F-1080
sg12
F1
sg13
I10
sg14
g15
sg16
I01
sg17
(igamelib.math2d
Vector2
p321
(dp322
S'y'
F416
sS'x'
F864
sbsssbba(igamelib.misc
Beauty
p323
(igamelib.data
SaveData
p324
(dp325
g6
(dp326
S'instance'
p327
(dp328
g10
I01
sg11
F28.360212706008067
sg12
F1.2211807940669388
sg13
I18
sg14
g35
sg16
I01
sg17
(igamelib.math2d
Vector2
p329
(dp330
S'y'
F123
sS'x'
F3
sbsssbba(igamelib.misc
Beauty
p331
(igamelib.data
SaveData
p332
(dp333
g6
(dp334
S'instance'
p335
(dp336
g10
I01
sg11
F100.50388770410385
sg12
F1.7672107796548242
sg13
I18
sg14
g35
sg16
I01
sg17
(igamelib.math2d
Vector2
p337
(dp338
S'y'
F65
sS'x'
F180
sbsssbba(igamelib.misc
Markable
p339
(igamelib.data
SaveData
p340
(dp341
g6
(dp342
S'instance'
p343
(dp344
g10
I01
sg11
F-180
sg12
F1
sg13
I10
sg14
g207
sg16
I01
sg17
(igamelib.math2d
Vector2
p345
(dp346
S'y'
F352
sS'x'
F416
sbsssbba(igamelib.misc
Markable
p347
(igamelib.data
SaveData
p348
(dp349
g6
(dp350
S'instance'
p351
(dp352
g10
I01
sg11
F-1080
sg12
F1
sg13
I10
sg14
S'path_T.png'
p353
sg16
I01
sg17
(igamelib.math2d
Vector2
p354
(dp355
S'y'
F480
sS'x'
F864
sbsssbba(igamelib.misc
Markable
p356
(igamelib.data
SaveData
p357
(dp358
g6
(dp359
S'instance'
p360
(dp361
g10
I01
sg11
F-810
sg12
F1
sg13
I10
sg14
g15
sg16
I01
sg17
(igamelib.math2d
Vector2
p362
(dp363
S'y'
F480
sS'x'
F736
sbsssbba(igamelib.misc
Beauty
p364
(igamelib.data
SaveData
p365
(dp366
g6
(dp367
S'instance'
p368
(dp369
g10
I01
sg11
F131.92766601654256
sg12
F0.58400696520039819
sg13
I18
sg14
g35
sg16
I01
sg17
(igamelib.math2d
Vector2
p370
(dp371
S'y'
F302
sS'x'
F138
sbsssbba(igamelib.misc
Beauty
p372
(igamelib.data
SaveData
p373
(dp374
g6
(dp375
S'instance'
p376
(dp377
g10
I01
sg11
F257.38898168443524
sg12
F0.97104571461402656
sg13
I18
sg14
g35
sg16
I01
sg17
(igamelib.math2d
Vector2
p378
(dp379
S'y'
F488
sS'x'
F328
sbsssbba(igamelib.misc
Beauty
p380
(igamelib.data
SaveData
p381
(dp382
g6
(dp383
S'instance'
p384
(dp385
g10
I01
sg11
F332.6915861889442
sg12
F1.1729900887605516
sg13
I18
sg14
g35
sg16
I01
sg17
(igamelib.math2d
Vector2
p386
(dp387
S'y'
F41
sS'x'
F546
sbsssbba(igamelib.misc
Beauty
p388
(igamelib.data
SaveData
p389
(dp390
g6
(dp391
S'instance'
p392
(dp393
g10
I01
sg11
F76.240800604640924
sg12
F0.95563630673282329
sg13
I18
sg14
g35
sg16
I01
sg17
(igamelib.math2d
Vector2
p394
(dp395
S'y'
F27
sS'x'
F94
sbsssbba(igamelib.misc
Markable
p396
(igamelib.data
SaveData
p397
(dp398
g6
(dp399
S'instance'
p400
(dp401
g10
I01
sg11
F-1080
sg12
F1
sg13
I10
sg14
g353
sg16
I01
sg17
(igamelib.math2d
Vector2
p402
(dp403
S'y'
F224
sS'x'
F800
sbsssbba(igamelib.misc
Beauty
p404
(igamelib.data
SaveData
p405
(dp406
g6
(dp407
S'instance'
p408
(dp409
g10
I01
sg11
F190.69919473013238
sg12
F1.6304547648344461
sg13
I18
sg14
g35
sg16
I01
sg17
(igamelib.math2d
Vector2
p410
(dp411
S'y'
F643
sS'x'
F267
sbsssbba(igamelib.towers
Tank
p412
(igamelib.data
SaveData
p413
(dp414
g6
(dp415
S'instance'
p416
(dp417
g10
I01
sg17
(igamelib.math2d
Vector2
p418
(dp419
S'y'
F288
sS'x'
F800
sbsg11
F-1260
sg16
I01
sssbba(igamelib.misc
Markable
p420
(igamelib.data
SaveData
p421
(dp422
g6
(dp423
S'instance'
p424
(dp425
g10
I01
sg11
F-1530
sg12
F1
sg13
I10
sg14
g207
sg16
I01
sg17
(igamelib.math2d
Vector2
p426
(dp427
S'y'
F96
sS'x'
F800
sbsssbba(igamelib.misc
Beauty
p428
(igamelib.data
SaveData
p429
(dp430
g6
(dp431
S'instance'
p432
(dp433
g10
I01
sg11
F249.28090369149436
sg12
F0.70165215445294982
sg13
I18
sg14
g35
sg16
I01
sg17
(igamelib.math2d
Vector2
p434
(dp435
S'y'
F385
sS'x'
F1077
sbsssbba(igamelib.misc
Beauty
p436
(igamelib.data
SaveData
p437
(dp438
g6
(dp439
S'instance'
p440
(dp441
g10
I01
sg11
F194.34325165353118
sg12
F1.8386083491310661
sg13
I18
sg14
g35
sg16
I01
sg17
(igamelib.math2d
Vector2
p442
(dp443
S'y'
F60
sS'x'
F635
sbsssbba(igamelib.buildings
FastFood
p444
(igamelib.data
SaveData
p445
(dp446
g6
(dp447
S'instance'
p448
(dp449
g10
I01
sg68
(igamelib.pathfinding
Path
p450
(igamelib.data
SaveData
p451
(dp452
g6
(dp453
S'instance'
p454
(dp455
g10
I01
sg75
(igamelib.pathfinding
Waypoint
p456
(igamelib.data
SaveData
p457
(dp458
g6
(dp459
S'instance'
p460
(dp461
g82
Nsg83
(igamelib.pathfinding
Waypoint
p462
(igamelib.data
SaveData
p463
(dp464
g6
(dp465
S'instance'
p466
(dp467
g82
g456
sg83
(igamelib.pathfinding
Waypoint
p468
(igamelib.data
SaveData
p469
(dp470
g6
(dp471
S'instance'
p472
(dp473
g82
g462
sg83
(igamelib.pathfinding
Waypoint
p474
(igamelib.data
SaveData
p475
(dp476
g6
(dp477
S'instance'
p478
(dp479
g82
g468
sg83
(igamelib.pathfinding
Waypoint
p480
(igamelib.data
SaveData
p481
(dp482
g6
(dp483
S'instance'
p484
(dp485
g82
g474
sg83
(igamelib.pathfinding
Waypoint
p486
(igamelib.data
SaveData
p487
(dp488
g6
(dp489
S'instance'
p490
(dp491
g82
g480
sg83
Nsg17
(igamelib.math2d
Vector2
p492
(dp493
S'y'
F565.96218020022252
sS'x'
F607.25250278086764
sbsssbbsg17
(igamelib.math2d
Vector2
p494
(dp495
S'y'
F484.09343715239157
sS'x'
F607.964404894327
sbsssbbsg17
(igamelib.math2d
Vector2
p496
(dp497
S'y'
F482.66963292547274
sS'x'
F862.82536151279203
sbsssbbsg17
(igamelib.math2d
Vector2
p498
(dp499
S'y'
F224.96106785317019
sS'x'
F862.82536151279203
sbsssbbsg17
(igamelib.math2d
Vector2
p500
(dp501
S'y'
F226.384872080089
sS'x'
F413.615127919911
sbsssbbsg17
(igamelib.math2d
Vector2
p502
(dp503
S'y'
F145.22803114571747
sS'x'
F413.615127919911
sbsssbbsg16
I00
sssbbsg17
(igamelib.math2d
Vector2
p504
(dp505
S'y'
F96
sS'x'
F416
sbsg11
F-450
sg16
I01
sssbba(igamelib.misc
Markable
p506
(igamelib.data
SaveData
p507
(dp508
g6
(dp509
S'instance'
p510
(dp511
g10
I01
sg11
F-1260
sg12
F1
sg13
I10
sg14
S'path_corner.png'
p512
sg16
I01
sg17
(igamelib.math2d
Vector2
p513
(dp514
S'y'
F224
sS'x'
F864
sbsssbba(igamelib.misc
Beauty
p515
(igamelib.data
SaveData
p516
(dp517
g6
(dp518
S'instance'
p519
(dp520
g10
I01
sg11
F273.3449791218535
sg12
F1.2454717876370625
sg13
I18
sg14
g35
sg16
I01
sg17
(igamelib.math2d
Vector2
p521
(dp522
S'y'
F287
sS'x'
F247
sbsssbba(igamelib.misc
Beauty
p523
(igamelib.data
SaveData
p524
(dp525
g6
(dp526
S'instance'
p527
(dp528
g10
I01
sg11
F21.128095240671875
sg12
F1.0010479120872353
sg13
I18
sg14
g35
sg16
I01
sg17
(igamelib.math2d
Vector2
p529
(dp530
S'y'
F202
sS'x'
F47
sbsssbba(igamelib.misc
Beauty
p531
(igamelib.data
SaveData
p532
(dp533
g6
(dp534
S'instance'
p535
(dp536
g10
I01
sg11
F277.49304531492703
sg12
F1.5350468728668871
sg13
I18
sg14
g35
sg16
I01
sg17
(igamelib.math2d
Vector2
p537
(dp538
S'y'
F678
sS'x'
F806
sbsssbba(igamelib.misc
Beauty
p539
(igamelib.data
SaveData
p540
(dp541
g6
(dp542
S'instance'
p543
(dp544
g10
I01
sg11
F190.0833007529294
sg12
F0.86863209183374446
sg13
I18
sg14
g35
sg16
I01
sg17
(igamelib.math2d
Vector2
p545
(dp546
S'y'
F648
sS'x'
F737
sbsssbba(igamelib.misc
Markable
p547
(igamelib.data
SaveData
p548
(dp549
g6
(dp550
S'instance'
p551
(dp552
g10
I01
sg11
F-1350
sg12
F1
sg13
I10
sg14
g15
sg16
I01
sg17
(igamelib.math2d
Vector2
p553
(dp554
S'y'
F224
sS'x'
F736
sbsssbba(igamelib.misc
Beauty
p555
(igamelib.data
SaveData
p556
(dp557
g6
(dp558
S'instance'
p559
(dp560
g10
I01
sg11
F105.10635688917694
sg12
F0.52745246372211663
sg13
I18
sg14
g35
sg16
I01
sg17
(igamelib.math2d
Vector2
p561
(dp562
S'y'
F609
sS'x'
F210
sbsssbba(igamelib.buildings
Beergarden
p563
(igamelib.data
SaveData
p564
(dp565
g6
(dp566
S'instance'
p567
(dp568
g10
I01
sg68
(igamelib.pathfinding
Path
p569
(igamelib.data
SaveData
p570
(dp571
g6
(dp572
S'instance'
p573
(dp574
g10
I01
sg75
(igamelib.pathfinding
Waypoint
p575
(igamelib.data
SaveData
p576
(dp577
g6
(dp578
S'instance'
p579
(dp580
g82
Nsg83
(igamelib.pathfinding
Waypoint
p581
(igamelib.data
SaveData
p582
(dp583
g6
(dp584
S'instance'
p585
(dp586
g82
g575
sg83
(igamelib.pathfinding
Waypoint
p587
(igamelib.data
SaveData
p588
(dp589
g6
(dp590
S'instance'
p591
(dp592
g82
g581
sg83
(igamelib.pathfinding
Waypoint
p593
(igamelib.data
SaveData
p594
(dp595
g6
(dp596
S'instance'
p597
(dp598
g82
g587
sg83
Nsg17
(igamelib.math2d
Vector2
p599
(dp600
S'y'
F566.67408231368188
sS'x'
F608.67630700778648
sbsssbbsg17
(igamelib.math2d
Vector2
p601
(dp602
S'y'
F484.80533926585093
sS'x'
F607.25250278086764
sbsssbbsg17
(igamelib.math2d
Vector2
p603
(dp604
S'y'
F480.53392658509455
sS'x'
F990.9677419354839
sbsssbbsg17
(igamelib.math2d
Vector2
p605
(dp606
S'y'
F559.55506117908794
sS'x'
F991.67964404894326
sbsssbbsg16
I00
sssbbsg17
(igamelib.math2d
Vector2
p607
(dp608
S'y'
F608
sS'x'
F992
sbsg11
F-900
sg16
I01
sssbba(igamelib.misc
Beauty
p609
(igamelib.data
SaveData
p610
(dp611
g6
(dp612
S'instance'
p613
(dp614
g10
I01
sg11
F200.13047738169811
sg12
F0.4847236944985544
sg13
I18
sg14
g35
sg16
I01
sg17
(igamelib.math2d
Vector2
p615
(dp616
S'y'
F158
sS'x'
F799
sbsssbba(igamelib.misc
Markable
p617
(igamelib.data
SaveData
p618
(dp619
g6
(dp620
S'instance'
p621
(dp622
g10
I01
sg11
F-810
sg12
F1
sg13
I10
sg14
g182
sg16
I01
sg17
(igamelib.math2d
Vector2
p623
(dp624
S'y'
F480
sS'x'
F608
sbsssbba(igamelib.misc
Beauty
p625
(igamelib.data
SaveData
p626
(dp627
g6
(dp628
S'instance'
p629
(dp630
g10
I01
sg11
F171.73987080139284
sg12
F1.328906452536684
sg13
I18
sg14
g35
sg16
I01
sg17
(igamelib.math2d
Vector2
p631
(dp632
S'y'
F425
sS'x'
F566
sbsssbba(igamelib.misc
Markable
p633
(igamelib.data
SaveData
p634
(dp635
g6
(dp636
S'instance'
p637
(dp638
g10
I01
sg11
F-1350
sg12
F1
sg13
I10
sg14
g15
sg16
I01
sg17
(igamelib.math2d
Vector2
p639
(dp640
S'y'
F224
sS'x'
F672
sbsssbba(igamelib.towers
Tank
p641
(igamelib.data
SaveData
p642
(dp643
g6
(dp644
S'instance'
p645
(dp646
g10
I01
sg17
(igamelib.math2d
Vector2
p647
(dp648
S'y'
F288
sS'x'
F608
sbsg11
F-1260
sg16
I01
sssbba(igamelib.misc
Beauty
p649
(igamelib.data
SaveData
p650
(dp651
g6
(dp652
S'instance'
p653
(dp654
g10
I01
sg11
F289.02892351738859
sg12
F0.53717717223821149
sg13
I18
sg14
g35
sg16
I01
sg17
(igamelib.math2d
Vector2
p655
(dp656
S'y'
F141
sS'x'
F1039
sbsssbba(igamelib.misc
Markable
p657
(igamelib.data
SaveData
p658
(dp659
g6
(dp660
S'instance'
p661
(dp662
g10
I01
sg11
F-900
sg12
F1
sg13
I10
sg14
g207
sg16
I01
sg17
(igamelib.math2d
Vector2
p663
(dp664
S'y'
F544
sS'x'
F992
sbsssbba(igamelib.misc
Beauty
p665
(igamelib.data
SaveData
p666
(dp667
g6
(dp668
S'instance'
p669
(dp670
g10
I01
sg11
F267.00559929347662
sg12
F0.83577190283188951
sg13
I18
sg14
g35
sg16
I01
sg17
(igamelib.math2d
Vector2
p671
(dp672
S'y'
F642
sS'x'
F24
sbsssbba(igamelib.towers
Tank
p673
(igamelib.data
SaveData
p674
(dp675
g6
(dp676
S'instance'
p677
(dp678
g10
I01
sg17
(igamelib.math2d
Vector2
p679
(dp680
S'y'
F416
sS'x'
F672
sbsg11
F-540
sg16
I01
sssbba(igamelib.buildings
Beergarden
p681
(igamelib.data
SaveData
p682
(dp683
g6
(dp684
S'instance'
p685
(dp686
g10
I01
sg68
(igamelib.pathfinding
Path
p687
(igamelib.data
SaveData
p688
(dp689
g6
(dp690
S'instance'
p691
(dp692
g10
I01
sg75
(igamelib.pathfinding
Waypoint
p693
(igamelib.data
SaveData
p694
(dp695
g6
(dp696
S'instance'
p697
(dp698
g82
Nsg83
(igamelib.pathfinding
Waypoint
p699
(igamelib.data
SaveData
p700
(dp701
g6
(dp702
S'instance'
p703
(dp704
g82
g693
sg83
(igamelib.pathfinding
Waypoint
p705
(igamelib.data
SaveData
p706
(dp707
g6
(dp708
S'instance'
p709
(dp710
g82
g699
sg83
(igamelib.pathfinding
Waypoint
p711
(igamelib.data
SaveData
p712
(dp713
g6
(dp714
S'instance'
p715
(dp716
g82
g705
sg83
(igamelib.pathfinding
Waypoint
p717
(igamelib.data
SaveData
p718
(dp719
g6
(dp720
S'instance'
p721
(dp722
g82
g711
sg83
(igamelib.pathfinding
Waypoint
p723
(igamelib.data
SaveData
p724
(dp725
g6
(dp726
S'instance'
p727
(dp728
g82
g717
sg83
(igamelib.pathfinding
Waypoint
p729
(igamelib.data
SaveData
p730
(dp731
g6
(dp732
S'instance'
p733
(dp734
g82
g723
sg83
Nsg17
(igamelib.math2d
Vector2
p735
(dp736
S'y'
F563.82647385984433
sS'x'
F607.25250278086764
sbsssbbsg17
(igamelib.math2d
Vector2
p737
(dp738
S'y'
F486.22914349276977
sS'x'
F605.11679644048945
sbsssbbsg17
(igamelib.math2d
Vector2
p739
(dp740
S'y'
F482.66963292547274
sS'x'
F864.24916573971086
sbsssbbsg17
(igamelib.math2d
Vector2
p741
(dp742
S'y'
F224.96106785317019
sS'x'
F864.24916573971086
sbsssbbsg17
(igamelib.math2d
Vector2
p743
(dp744
S'y'
F225
sS'x'
F734
sbsssbbsg17
(igamelib.math2d
Vector2
p745
(dp746
S'y'
F98
sS'x'
F734
sbsssbbsg17
(igamelib.math2d
Vector2
p747
(dp748
S'y'
F98
sS'x'
F879
sbsssbbsg16
I00
sssbbsg17
(igamelib.math2d
Vector2
p749
(dp750
S'y'
F96
sS'x'
F928
sbsg11
F-1530
sg16
I01
sssbba(igamelib.misc
Markable
p751
(igamelib.data
SaveData
p752
(dp753
g6
(dp754
S'instance'
p755
(dp756
g10
I01
sg11
F-180
sg12
F1
sg13
I10
sg14
g207
sg16
I01
sg17
(igamelib.math2d
Vector2
p757
(dp758
S'y'
F288
sS'x'
F416
sbsssbba(igamelib.buildings
HQ
p759
(igamelib.data
SaveData
p760
(dp761
g6
(dp762
S'instance'
p763
(dp764
g10
I01
sg17
(igamelib.math2d
Vector2
p765
(dp766
S'y'
F608
sS'x'
F608
sbsg11
F-720
sg16
I01
sssbba(igamelib.misc
Beauty
p767
(igamelib.data
SaveData
p768
(dp769
g6
(dp770
S'instance'
p771
(dp772
g10
I01
sg11
F127.28973019820795
sg12
F1.9183230187518523
sg13
I18
sg14
g35
sg16
I01
sg17
(igamelib.math2d
Vector2
p773
(dp774
S'y'
F645
sS'x'
F863
sbsssbba(igamelib.towers
Tank
p775
(igamelib.data
SaveData
p776
(dp777
g6
(dp778
S'instance'
p779
(dp780
g10
I01
sg17
(igamelib.math2d
Vector2
p781
(dp782
S'y'
F544
sS'x'
F736
sbsg11
F-1260
sg16
I01
sssbba(igamelib.misc
Markable
p783
(igamelib.data
SaveData
p784
(dp785
g6
(dp786
S'instance'
p787
(dp788
g10
I01
sg11
F-720
sg12
F1
sg13
I10
sg14
g15
sg16
I01
sg17
(igamelib.math2d
Vector2
p789
(dp790
S'y'
F544
sS'x'
F608
sbsssbba(igamelib.misc
Beauty
p791
(igamelib.data
SaveData
p792
(dp793
g6
(dp794
S'instance'
p795
(dp796
g10
I01
sg11
F316.31455206252156
sg12
F1.4536355705931483
sg13
I18
sg14
g35
sg16
I01
sg17
(igamelib.math2d
Vector2
p797
(dp798
S'y'
F693
sS'x'
F90
sbsssbba(igamelib.misc
Beauty
p799
(igamelib.data
SaveData
p800
(dp801
g6
(dp802
S'instance'
p803
(dp804
g10
I01
sg11
F312.09655740623083
sg12
F1.04892885607674
sg13
I18
sg14
g35
sg16
I01
sg17
(igamelib.math2d
Vector2
p805
(dp806
S'y'
F147
sS'x'
F149
sbsssbba(igamelib.misc
Beauty
p807
(igamelib.data
SaveData
p808
(dp809
g6
(dp810
S'instance'
p811
(dp812
g10
I01
sg11
F151.89266901524792
sg12
F1.7146020461971532
sg13
I18
sg14
g35
sg16
I01
sg17
(igamelib.math2d
Vector2
p813
(dp814
S'y'
F355
sS'x'
F58
sbsssbba(igamelib.misc
Markable
p815
(igamelib.data
SaveData
p816
(dp817
g6
(dp818
S'instance'
p819
(dp820
g10
I01
sg11
F-90
sg12
F1
sg13
I10
sg14
S'path_T.png'
p821
sg16
I01
sg17
(igamelib.math2d
Vector2
p822
(dp823
S'y'
F224
sS'x'
F416
sbsssbba(igamelib.misc
Markable
p824
(igamelib.data
SaveData
p825
(dp826
g6
(dp827
S'instance'
p828
(dp829
g10
I01
sg11
F-1530
sg12
F1
sg13
I10
sg14
g182
sg16
I01
sg17
(igamelib.math2d
Vector2
p830
(dp831
S'y'
F96
sS'x'
F736
sbsssbba(igamelib.misc
Beauty
p832
(igamelib.data
SaveData
p833
(dp834
g6
(dp835
S'instance'
p836
(dp837
g10
I01
sg11
F342.88610506895662
sg12
F1.9228392901392855
sg13
I18
sg14
g35
sg16
I01
sg17
(igamelib.math2d
Vector2
p838
(dp839
S'y'
F37
sS'x'
F24
sbsssbbatRp840
.