c__builtin__
set
p1
((lp2
(igamelib.misc
Beauty
p3
(igamelib.data
SaveData
p4
(dp5
S'classes'
p6
(dp7
S'instance'
p8
(dp9
S'__visible'
p10
I01
sS'_rotation'
p11
F339.37670352031347
sS'_Scale'
p12
F1.1113451374321144
sS'_z_index'
p13
I18
sS'_TextureName'
p14
S'deco_tree.png'
p15
sS'__renderCallback'
p16
I01
sS'_position'
p17
(igamelib.math2d
Vector2
p18
(dp19
S'y'
F54.915254237288131
sS'x'
F274.57627118644069
sbsssbba(igamelib.misc
Beauty
p20
(igamelib.data
SaveData
p21
(dp22
g6
(dp23
S'instance'
p24
(dp25
g10
I01
sg11
F228.78075721568047
sg12
F1.5026756854435541
sg13
I18
sg14
g15
sg16
I01
sg17
(igamelib.math2d
Vector2
p26
(dp27
S'y'
F233.89830508474574
sS'x'
F1086.1016949152543
sbsssbba(igamelib.misc
Beauty
p28
(igamelib.data
SaveData
p29
(dp30
g6
(dp31
S'instance'
p32
(dp33
g10
I01
sg11
F145.69844944544451
sg12
F1.3950605294385912
sg13
I18
sg14
g15
sg16
I01
sg17
(igamelib.math2d
Vector2
p34
(dp35
S'y'
F35.593220338983052
sS'x'
F1015.9322033898304
sbsssbba(igamelib.misc
Beauty
p36
(igamelib.data
SaveData
p37
(dp38
g6
(dp39
S'instance'
p40
(dp41
g10
I01
sg11
F75.90496009751152
sg12
F0.68386890843406589
sg13
I18
sg14
g15
sg16
I01
sg17
(igamelib.math2d
Vector2
p42
(dp43
S'y'
F656.94915254237287
sS'x'
F957.96610169491521
sbsssbba(igamelib.misc
Beauty
p44
(igamelib.data
SaveData
p45
(dp46
g6
(dp47
S'instance'
p48
(dp49
g10
I01
sg11
F100.85457043709053
sg12
F1.6443361985337073
sg13
I18
sg14
g15
sg16
I01
sg17
(igamelib.math2d
Vector2
p50
(dp51
S'y'
F673.22033898305085
sS'x'
F527.79661016949149
sbsssbba(igamelib.misc
Beauty
p52
(igamelib.data
SaveData
p53
(dp54
g6
(dp55
S'instance'
p56
(dp57
g10
I01
sg11
F216.70347469601015
sg12
F1.1136924544690345
sg13
I18
sg14
g15
sg16
I01
sg17
(igamelib.math2d
Vector2
p58
(dp59
S'y'
F309.15254237288133
sS'x'
F1088.1355932203389
sbsssbba(igamelib.misc
Beauty
p60
(igamelib.data
SaveData
p61
(dp62
g6
(dp63
S'instance'
p64
(dp65
g10
I01
sg11
F124.88387919332956
sg12
F1.6186263363050963
sg13
I18
sg14
g15
sg16
I01
sg17
(igamelib.math2d
Vector2
p66
(dp67
S'y'
F123.05084745762711
sS'x'
F1008.8135593220338
sbsssbba(igamelib.misc
Beauty
p68
(igamelib.data
SaveData
p69
(dp70
g6
(dp71
S'instance'
p72
(dp73
g10
I01
sg11
F312.84940961429737
sg12
F0.88377625056841147
sg13
I18
sg14
g15
sg16
I01
sg17
(igamelib.math2d
Vector2
p74
(dp75
S'y'
F577.62711864406776
sS'x'
F931.52542372881351
sbsssbba(igamelib.misc
Beauty
p76
(igamelib.data
SaveData
p77
(dp78
g6
(dp79
S'instance'
p80
(dp81
g10
I01
sg11
F356.07698822597007
sg12
F1.1109774700287822
sg13
I18
sg14
g15
sg16
I01
sg17
(igamelib.math2d
Vector2
p82
(dp83
S'y'
F517.62711864406776
sS'x'
F1092.2033898305085
sbsssbba(igamelib.misc
Beauty
p84
(igamelib.data
SaveData
p85
(dp86
g6
(dp87
S'instance'
p88
(dp89
g10
I01
sg11
F93.633922893005121
sg12
F0.87683337266882533
sg13
I18
sg14
g15
sg16
I01
sg17
(igamelib.math2d
Vector2
p90
(dp91
S'y'
F52.881355932203391
sS'x'
F490.16949152542372
sbsssbba(igamelib.misc
Beauty
p92
(igamelib.data
SaveData
p93
(dp94
g6
(dp95
S'instance'
p96
(dp97
g10
I01
sg11
F19.626917761793518
sg12
F1.7388683130331066
sg13
I18
sg14
g15
sg16
I01
sg17
(igamelib.math2d
Vector2
p98
(dp99
S'y'
F619.32203389830511
sS'x'
F1072.8813559322034
sbsssbba(igamelib.misc
Markable
p100
(igamelib.data
SaveData
p101
(dp102
g6
(dp103
S'instance'
p104
(dp105
g10
I01
sg11
F-180
sg12
F1
sg13
I10
sg14
S'path_corner.png'
p106
sg16
I01
sg17
(igamelib.math2d
Vector2
p107
(dp108
S'y'
F352
sS'x'
F672
sbsssbba(igamelib.misc
Beauty
p109
(igamelib.data
SaveData
p110
(dp111
g6
(dp112
S'instance'
p113
(dp114
g10
I01
sg11
F251.56865362509976
sg12
F1.353120038854184
sg13
I18
sg14
g15
sg16
I01
sg17
(igamelib.math2d
Vector2
p115
(dp116
S'y'
F498.30508474576271
sS'x'
F1073.8983050847457
sbsssbba(igamelib.misc
Beauty
p117
(igamelib.data
SaveData
p118
(dp119
g6
(dp120
S'instance'
p121
(dp122
g10
I01
sg11
F275.21533828981262
sg12
F1.3151155279651914
sg13
I18
sg14
g15
sg16
I01
sg17
(igamelib.math2d
Vector2
p123
(dp124
S'y'
F213.5593220338983
sS'x'
F121.01694915254237
sbsssbba(igamelib.misc
Beauty
p125
(igamelib.data
SaveData
p126
(dp127
g6
(dp128
S'instance'
p129
(dp130
g10
I01
sg11
F272.71801212656828
sg12
F1.0202430695200604
sg13
I18
sg14
g15
sg16
I01
sg17
(igamelib.math2d
Vector2
p131
(dp132
S'y'
F606.10169491525426
sS'x'
F363.05084745762713
sbsssbba(igamelib.misc
Beauty
p133
(igamelib.data
SaveData
p134
(dp135
g6
(dp136
S'instance'
p137
(dp138
g10
I01
sg11
F167.68722935613025
sg12
F1.1150329808729653
sg13
I18
sg14
g15
sg16
I01
sg17
(igamelib.math2d
Vector2
p139
(dp140
S'y'
F22.372881355932201
sS'x'
F897.96610169491521
sbsssbba(igamelib.misc
Beauty
p141
(igamelib.data
SaveData
p142
(dp143
g6
(dp144
S'instance'
p145
(dp146
g10
I01
sg11
F180.81201896421507
sg12
F1.8181194766026758
sg13
I18
sg14
g15
sg16
I01
sg17
(igamelib.math2d
Vector2
p147
(dp148
S'y'
F115.93220338983051
sS'x'
F595.93220338983053
sbsssbba(igamelib.misc
Beauty
p149
(igamelib.data
SaveData
p150
(dp151
g6
(dp152
S'instance'
p153
(dp154
g10
I01
sg11
F218.6392389339442
sg12
F0.59203873649938976
sg13
I18
sg14
g15
sg16
I01
sg17
(igamelib.math2d
Vector2
p155
(dp156
S'y'
F691.52542372881351
sS'x'
F756.61016949152543
sbsssbba(igamelib.misc
Beauty
p157
(igamelib.data
SaveData
p158
(dp159
g6
(dp160
S'instance'
p161
(dp162
g10
I01
sg11
F336.50716913529817
sg12
F1.6631527566095881
sg13
I18
sg14
g15
sg16
I01
sg17
(igamelib.math2d
Vector2
p163
(dp164
S'y'
F641.69491525423723
sS'x'
F251.18644067796609
sbsssbba(igamelib.misc
Beauty
p165
(igamelib.data
SaveData
p166
(dp167
g6
(dp168
S'instance'
p169
(dp170
g10
I01
sg11
F270.46782010079636
sg12
F1.5092395292046004
sg13
I18
sg14
g15
sg16
I01
sg17
(igamelib.math2d
Vector2
p171
(dp172
S'y'
F506.44067796610165
sS'x'
F318.30508474576271
sbsssbba(igamelib.misc
Beauty
p173
(igamelib.data
SaveData
p174
(dp175
g6
(dp176
S'instance'
p177
(dp178
g10
I01
sg11
F358.59313758847259
sg12
F1.0399047467319456
sg13
I18
sg14
g15
sg16
I01
sg17
(igamelib.math2d
Vector2
p179
(dp180
S'y'
F64.067796610169495
sS'x'
F420
sbsssbba(igamelib.misc
Beauty
p181
(igamelib.data
SaveData
p182
(dp183
g6
(dp184
S'instance'
p185
(dp186
g10
I01
sg11
F306.14096794539569
sg12
F1.145285490641482
sg13
I18
sg14
g15
sg16
I01
sg17
(igamelib.math2d
Vector2
p187
(dp188
S'y'
F138.30508474576271
sS'x'
F222.71186440677965
sbsssbba(igamelib.misc
Beauty
p189
(igamelib.data
SaveData
p190
(dp191
g6
(dp192
S'instance'
p193
(dp194
g10
I01
sg11
F213.43952069157314
sg12
F0.60697682945113129
sg13
I18
sg14
g15
sg16
I01
sg17
(igamelib.math2d
Vector2
p195
(dp196
S'y'
F125.08474576271186
sS'x'
F224.74576271186439
sbsssbba(igamelib.misc
Beauty
p197
(igamelib.data
SaveData
p198
(dp199
g6
(dp200
S'instance'
p201
(dp202
g10
I01
sg11
F85.996557718287178
sg12
F1.8430469385908335
sg13
I18
sg14
g15
sg16
I01
sg17
(igamelib.math2d
Vector2
p203
(dp204
S'y'
F163.72881355932202
sS'x'
F153.5593220338983
sbsssbba(igamelib.misc
Beauty
p205
(igamelib.data
SaveData
p206
(dp207
g6
(dp208
S'instance'
p209
(dp210
g10
I01
sg11
F156.85175313778294
sg12
F1.5670733060864677
sg13
I18
sg14
g15
sg16
I01
sg17
(igamelib.math2d
Vector2
p211
(dp212
S'y'
F400.67796610169489
sS'x'
F1076.9491525423728
sbsssbba(igamelib.buildings
Orphanage
p213
(igamelib.data
SaveData
p214
(dp215
g6
(dp216
S'instance'
p217
(dp218
g10
I01
sS'path'
p219
(igamelib.pathfinding
Path
p220
(igamelib.data
SaveData
p221
(dp222
g6
(dp223
S'instance'
p224
(dp225
g10
I01
sS'_Start'
p226
(igamelib.pathfinding
Waypoint
p227
(igamelib.data
SaveData
p228
(dp229
g6
(dp230
S'instance'
p231
(dp232
S'_previous'
p233
NsS'_next'
p234
(igamelib.pathfinding
Waypoint
p235
(igamelib.data
SaveData
p236
(dp237
g6
(dp238
S'instance'
p239
(dp240
g233
g227
sg234
(igamelib.pathfinding
Waypoint
p241
(igamelib.data
SaveData
p242
(dp243
g6
(dp244
S'instance'
p245
(dp246
g233
g235
sg234
(igamelib.pathfinding
Waypoint
p247
(igamelib.data
SaveData
p248
(dp249
g6
(dp250
S'instance'
p251
(dp252
g233
g241
sg234
(igamelib.pathfinding
Waypoint
p253
(igamelib.data
SaveData
p254
(dp255
g6
(dp256
S'instance'
p257
(dp258
g233
g247
sg234
(igamelib.pathfinding
Waypoint
p259
(igamelib.data
SaveData
p260
(dp261
g6
(dp262
S'instance'
p263
(dp264
g233
g253
sg234
Nsg17
(igamelib.math2d
Vector2
p265
(dp266
S'y'
F502
sS'x'
F671
sbsssbbsg17
(igamelib.math2d
Vector2
p267
(dp268
S'y'
F353
sS'x'
F669
sbsssbbsg17
(igamelib.math2d
Vector2
p269
(dp270
S'y'
F353
sS'x'
F545
sbsssbbsg17
(igamelib.math2d
Vector2
p271
(dp272
S'y'
F285.47274749721913
sS'x'
F543.89321468298112
sbsssbbsg17
(igamelib.math2d
Vector2
p273
(dp274
S'y'
F247.03003337041159
sS'x'
F531.07897664071197
sbsssbbsg17
(igamelib.math2d
Vector2
p275
(dp276
S'y'
F242.04671857619579
sS'x'
F560.2669632925473
sbsssbbsg16
I00
sssbbsg17
(igamelib.math2d
Vector2
p277
(dp278
S'y'
F224
sS'x'
F544
sbsg11
F-450
sg16
I01
sssbba(igamelib.misc
Beauty
p279
(igamelib.data
SaveData
p280
(dp281
g6
(dp282
S'instance'
p283
(dp284
g10
I01
sg11
F14.906397828311423
sg12
F1.8837414735210123
sg13
I18
sg14
g15
sg16
I01
sg17
(igamelib.math2d
Vector2
p285
(dp286
S'y'
F42.711864406779661
sS'x'
F888.81355932203383
sbsssbba(igamelib.misc
Beauty
p287
(igamelib.data
SaveData
p288
(dp289
g6
(dp290
S'instance'
p291
(dp292
g10
I01
sg11
F226.14724488772879
sg12
F1.4152704040066419
sg13
I18
sg14
g15
sg16
I01
sg17
(igamelib.math2d
Vector2
p293
(dp294
S'y'
F87.457627118644069
sS'x'
F799.32203389830499
sbsssbba(igamelib.misc
Beauty
p295
(igamelib.data
SaveData
p296
(dp297
g6
(dp298
S'instance'
p299
(dp300
g10
I01
sg11
F128.00003397060107
sg12
F0.45834375691632956
sg13
I18
sg14
g15
sg16
I01
sg17
(igamelib.math2d
Vector2
p301
(dp302
S'y'
F668.13559322033893
sS'x'
F386.4406779661017
sbsssbba(igamelib.misc
Beauty
p303
(igamelib.data
SaveData
p304
(dp305
g6
(dp306
S'instance'
p307
(dp308
g10
I01
sg11
F314.57176970857427
sg12
F1.6131647144895547
sg13
I18
sg14
g15
sg16
I01
sg17
(igamelib.math2d
Vector2
p309
(dp310
S'y'
F136.27118644067795
sS'x'
F863.38983050847457
sbsssbba(igamelib.misc
Beauty
p311
(igamelib.data
SaveData
p312
(dp313
g6
(dp314
S'instance'
p315
(dp316
g10
I01
sg11
F41.889911295739275
sg12
F1.6051447343075751
sg13
I18
sg14
g15
sg16
I01
sg17
(igamelib.math2d
Vector2
p317
(dp318
S'y'
F500.33898305084745
sS'x'
F153.5593220338983
sbsssbba(igamelib.misc
Beauty
p319
(igamelib.data
SaveData
p320
(dp321
g6
(dp322
S'instance'
p323
(dp324
g10
I01
sg11
F238.6106113498746
sg12
F1.6145048453464734
sg13
I18
sg14
g15
sg16
I01
sg17
(igamelib.math2d
Vector2
p325
(dp326
S'y'
F471.86440677966101
sS'x'
F1051.5254237288136
sbsssbba(igamelib.misc
Beauty
p327
(igamelib.data
SaveData
p328
(dp329
g6
(dp330
S'instance'
p331
(dp332
g10
I01
sg11
F65.894220849266787
sg12
F1.9298827697204464
sg13
I18
sg14
g15
sg16
I01
sg17
(igamelib.math2d
Vector2
p333
(dp334
S'y'
F670.16949152542372
sS'x'
F305.08474576271186
sbsssbba(igamelib.misc
Beauty
p335
(igamelib.data
SaveData
p336
(dp337
g6
(dp338
S'instance'
p339
(dp340
g10
I01
sg11
F165.44303327103145
sg12
F1.6710185712994308
sg13
I18
sg14
g15
sg16
I01
sg17
(igamelib.math2d
Vector2
p341
(dp342
S'y'
F613.22033898305085
sS'x'
F170.84745762711864
sbsssbba(igamelib.misc
Beauty
p343
(igamelib.data
SaveData
p344
(dp345
g6
(dp346
S'instance'
p347
(dp348
g10
I01
sg11
F144.26331726609109
sg12
F1.6676649337123703
sg13
I18
sg14
g15
sg16
I01
sg17
(igamelib.math2d
Vector2
p349
(dp350
S'y'
F584.74576271186436
sS'x'
F47.796610169491522
sbsssbba(igamelib.misc
Beauty
p351
(igamelib.data
SaveData
p352
(dp353
g6
(dp354
S'instance'
p355
(dp356
g10
I01
sg11
F27.739860667254376
sg12
F0.55584038838021321
sg13
I18
sg14
g15
sg16
I01
sg17
(igamelib.math2d
Vector2
p357
(dp358
S'y'
F695.59322033898297
sS'x'
F1010.8474576271186
sbsssbba(igamelib.misc
Beauty
p359
(igamelib.data
SaveData
p360
(dp361
g6
(dp362
S'instance'
p363
(dp364
g10
I01
sg11
F228.36720921540999
sg12
F1.4228357013241069
sg13
I18
sg14
g15
sg16
I01
sg17
(igamelib.math2d
Vector2
p365
(dp366
S'y'
F330.50847457627117
sS'x'
F198.30508474576271
sbsssbba(igamelib.misc
Beauty
p367
(igamelib.data
SaveData
p368
(dp369
g6
(dp370
S'instance'
p371
(dp372
g10
I01
sg11
F108.50028022423479
sg12
F1.0701546805631628
sg13
I18
sg14
g15
sg16
I01
sg17
(igamelib.math2d
Vector2
p373
(dp374
S'y'
F449.49152542372877
sS'x'
F205.42372881355931
sbsssbba(igamelib.misc
Markable
p375
(igamelib.data
SaveData
p376
(dp377
g6
(dp378
S'instance'
p379
(dp380
g10
I01
sg11
F-540
sg12
F1
sg13
I10
sg14
S'path_straight.png'
p381
sg16
I01
sg17
(igamelib.math2d
Vector2
p382
(dp383
S'y'
F224
sS'x'
F544
sbsssbba(igamelib.misc
Beauty
p384
(igamelib.data
SaveData
p385
(dp386
g6
(dp387
S'instance'
p388
(dp389
g10
I01
sg11
F177.17544497382127
sg12
F0.96187746520892681
sg13
I18
sg14
g15
sg16
I01
sg17
(igamelib.math2d
Vector2
p390
(dp391
S'y'
F140.33898305084745
sS'x'
F765.7627118644067
sbsssbba(igamelib.misc
Beauty
p392
(igamelib.data
SaveData
p393
(dp394
g6
(dp395
S'instance'
p396
(dp397
g10
I01
sg11
F267.32851116597237
sg12
F0.51892623667847004
sg13
I18
sg14
g15
sg16
I01
sg17
(igamelib.math2d
Vector2
p398
(dp399
S'y'
F44.745762711864401
sS'x'
F810.50847457627117
sbsssbba(igamelib.misc
Beauty
p400
(igamelib.data
SaveData
p401
(dp402
g6
(dp403
S'instance'
p404
(dp405
g10
I01
sg11
F257.42976978698971
sg12
F1.9381235718425349
sg13
I18
sg14
g15
sg16
I01
sg17
(igamelib.math2d
Vector2
p406
(dp407
S'y'
F426.1016949152542
sS'x'
F70.169491525423723
sbsssbba(igamelib.misc
Beauty
p408
(igamelib.data
SaveData
p409
(dp410
g6
(dp411
S'instance'
p412
(dp413
g10
I01
sg11
F207.11456346709051
sg12
F0.5031848139934938
sg13
I18
sg14
g15
sg16
I01
sg17
(igamelib.math2d
Vector2
p414
(dp415
S'y'
F430.16949152542372
sS'x'
F1016.9491525423729
sbsssbba(igamelib.misc
Beauty
p416
(igamelib.data
SaveData
p417
(dp418
g6
(dp419
S'instance'
p420
(dp421
g10
I01
sg11
F41.456476432782068
sg12
F1.6792893275574827
sg13
I18
sg14
g15
sg16
I01
sg17
(igamelib.math2d
Vector2
p422
(dp423
S'y'
F661.01694915254234
sS'x'
F1069.8305084745762
sbsssbba(igamelib.misc
Beauty
p424
(igamelib.data
SaveData
p425
(dp426
g6
(dp427
S'instance'
p428
(dp429
g10
I01
sg11
F128.14102825783553
sg12
F0.88724524912131741
sg13
I18
sg14
g15
sg16
I01
sg17
(igamelib.math2d
Vector2
p430
(dp431
S'y'
F148.47457627118644
sS'x'
F1071.8644067796611
sbsssbba(igamelib.misc
Beauty
p432
(igamelib.data
SaveData
p433
(dp434
g6
(dp435
S'instance'
p436
(dp437
g10
I01
sg11
F56.639444604411715
sg12
F1.3237318744485445
sg13
I18
sg14
g15
sg16
I01
sg17
(igamelib.math2d
Vector2
p438
(dp439
S'y'
F432.20338983050846
sS'x'
F256.27118644067798
sbsssbba(igamelib.misc
Beauty
p440
(igamelib.data
SaveData
p441
(dp442
g6
(dp443
S'instance'
p444
(dp445
g10
I01
sg11
F28.734383290605329
sg12
F1.6441718901826137
sg13
I18
sg14
g15
sg16
I01
sg17
(igamelib.math2d
Vector2
p446
(dp447
S'y'
F67.118644067796609
sS'x'
F754.57627118644064
sbsssbba(igamelib.misc
Beauty
p448
(igamelib.data
SaveData
p449
(dp450
g6
(dp451
S'instance'
p452
(dp453
g10
I01
sg11
F64.310079982179005
sg12
F0.4529015164207838
sg13
I18
sg14
g15
sg16
I01
sg17
(igamelib.math2d
Vector2
p454
(dp455
S'y'
F705.7627118644067
sS'x'
F665.0847457627118
sbsssbba(igamelib.misc
Beauty
p456
(igamelib.data
SaveData
p457
(dp458
g6
(dp459
S'instance'
p460
(dp461
g10
I01
sg11
F47.889786970986123
sg12
F1.3882682602990015
sg13
I18
sg14
g15
sg16
I01
sg17
(igamelib.math2d
Vector2
p462
(dp463
S'y'
F478.9830508474576
sS'x'
F279.66101694915255
sbsssbba(igamelib.misc
Beauty
p464
(igamelib.data
SaveData
p465
(dp466
g6
(dp467
S'instance'
p468
(dp469
g10
I01
sg11
F321.38550174445044
sg12
F0.95528046488632334
sg13
I18
sg14
g15
sg16
I01
sg17
(igamelib.math2d
Vector2
p470
(dp471
S'y'
F631.52542372881351
sS'x'
F391.52542372881356
sbsssbba(igamelib.misc
Beauty
p472
(igamelib.data
SaveData
p473
(dp474
g6
(dp475
S'instance'
p476
(dp477
g10
I01
sg11
F189.11195676107491
sg12
F0.76113728308180817
sg13
I18
sg14
g15
sg16
I01
sg17
(igamelib.math2d
Vector2
p478
(dp479
S'y'
F547.11864406779659
sS'x'
F321.35593220338984
sbsssbba(igamelib.misc
Beauty
p480
(igamelib.data
SaveData
p481
(dp482
g6
(dp483
S'instance'
p484
(dp485
g10
I01
sg11
F46.741258805664231
sg12
F0.85280547493999381
sg13
I18
sg14
g15
sg16
I01
sg17
(igamelib.math2d
Vector2
p486
(dp487
S'y'
F497.28813559322032
sS'x'
F181.01694915254237
sbsssbba(igamelib.misc
Beauty
p488
(igamelib.data
SaveData
p489
(dp490
g6
(dp491
S'instance'
p492
(dp493
g10
I01
sg11
F35.822529248535979
sg12
F1.446219366228213
sg13
I18
sg14
g15
sg16
I01
sg17
(igamelib.math2d
Vector2
p494
(dp495
S'y'
F191.18644067796609
sS'x'
F1069.8305084745762
sbsssbba(igamelib.misc
Beauty
p496
(igamelib.data
SaveData
p497
(dp498
g6
(dp499
S'instance'
p500
(dp501
g10
I01
sg11
F220.45654117122967
sg12
F1.48394617811459
sg13
I18
sg14
g15
sg16
I01
sg17
(igamelib.math2d
Vector2
p502
(dp503
S'y'
F148.47457627118644
sS'x'
F966.10169491525414
sbsssbba(igamelib.misc
Beauty
p504
(igamelib.data
SaveData
p505
(dp506
g6
(dp507
S'instance'
p508
(dp509
g10
I01
sg11
F244.11232451297232
sg12
F0.75212642009170461
sg13
I18
sg14
g15
sg16
I01
sg17
(igamelib.math2d
Vector2
p510
(dp511
S'y'
F409.83050847457628
sS'x'
F158.64406779661016
sbsssbba(igamelib.misc
Beauty
p512
(igamelib.data
SaveData
p513
(dp514
g6
(dp515
S'instance'
p516
(dp517
g10
I01
sg11
F134.83039187460969
sg12
F1.1760641141100103
sg13
I18
sg14
g15
sg16
I01
sg17
(igamelib.math2d
Vector2
p518
(dp519
S'y'
F103.72881355932203
sS'x'
F255.25423728813558
sbsssbba(igamelib.misc
Beauty
p520
(igamelib.data
SaveData
p521
(dp522
g6
(dp523
S'instance'
p524
(dp525
g10
I01
sg11
F165.61282669904264
sg12
F1.5940563950084434
sg13
I18
sg14
g15
sg16
I01
sg17
(igamelib.math2d
Vector2
p526
(dp527
S'y'
F56.949152542372879
sS'x'
F904.06779661016947
sbsssbba(igamelib.misc
Beauty
p528
(igamelib.data
SaveData
p529
(dp530
g6
(dp531
S'instance'
p532
(dp533
g10
I01
sg11
F251.42289743544114
sg12
F1.0671539437619508
sg13
I18
sg14
g15
sg16
I01
sg17
(igamelib.math2d
Vector2
p534
(dp535
S'y'
F224.74576271186439
sS'x'
F875.59322033898297
sbsssbba(igamelib.misc
Beauty
p536
(igamelib.data
SaveData
p537
(dp538
g6
(dp539
S'instance'
p540
(dp541
g10
I01
sg11
F11.856064173303324
sg12
F0.5080881996393809
sg13
I18
sg14
g15
sg16
I01
sg17
(igamelib.math2d
Vector2
p542
(dp543
S'y'
F352.88135593220335
sS'x'
F982.37288135593212
sbsssbba(igamelib.misc
Beauty
p544
(igamelib.data
SaveData
p545
(dp546
g6
(dp547
S'instance'
p548
(dp549
g10
I01
sg11
F12.07742441044517
sg12
F0.78301019088678125
sg13
I18
sg14
g15
sg16
I01
sg17
(igamelib.math2d
Vector2
p550
(dp551
S'y'
F699.66101694915255
sS'x'
F615.25423728813553
sbsssbba(igamelib.misc
Markable
p552
(igamelib.data
SaveData
p553
(dp554
g6
(dp555
S'instance'
p556
(dp557
g10
I01
sg11
F0
sg12
F1
sg13
I10
sg14
S'path_straight.png'
p558
sg16
I01
sg17
(igamelib.math2d
Vector2
p559
(dp560
S'y'
F416
sS'x'
F672
sbsssbba(igamelib.misc
Beauty
p561
(igamelib.data
SaveData
p562
(dp563
g6
(dp564
S'instance'
p565
(dp566
g10
I01
sg11
F13.472460948045342
sg12
F1.7287824775137914
sg13
I18
sg14
g15
sg16
I01
sg17
(igamelib.math2d
Vector2
p567
(dp568
S'y'
F356.94915254237287
sS'x'
F1010.8474576271186
sbsssbba(igamelib.misc
Beauty
p569
(igamelib.data
SaveData
p570
(dp571
g6
(dp572
S'instance'
p573
(dp574
g10
I01
sg11
F230.46595184220723
sg12
F1.5025667163175278
sg13
I18
sg14
g15
sg16
I01
sg17
(igamelib.math2d
Vector2
p575
(dp576
S'y'
F492.20338983050846
sS'x'
F80.33898305084746
sbsssbba(igamelib.misc
Beauty
p577
(igamelib.data
SaveData
p578
(dp579
g6
(dp580
S'instance'
p581
(dp582
g10
I01
sg11
F168.64303624251414
sg12
F1.6538235128955472
sg13
I18
sg14
g15
sg16
I01
sg17
(igamelib.math2d
Vector2
p583
(dp584
S'y'
F355.93220338983048
sS'x'
F93.559322033898297
sbsssbba(igamelib.misc
Beauty
p585
(igamelib.data
SaveData
p586
(dp587
g6
(dp588
S'instance'
p589
(dp590
g10
I01
sg11
F203.45463400650891
sg12
F1.8131672420649987
sg13
I18
sg14
g15
sg16
I01
sg17
(igamelib.math2d
Vector2
p591
(dp592
S'y'
F662.03389830508468
sS'x'
F488.13559322033893
sbsssbba(igamelib.misc
Beauty
p593
(igamelib.data
SaveData
p594
(dp595
g6
(dp596
S'instance'
p597
(dp598
g10
I01
sg11
F209.82149203560419
sg12
F1.4161156687718153
sg13
I18
sg14
g15
sg16
I01
sg17
(igamelib.math2d
Vector2
p599
(dp600
S'y'
F575.59322033898297
sS'x'
F337.62711864406776
sbsssbba(igamelib.misc
Beauty
p601
(igamelib.data
SaveData
p602
(dp603
g6
(dp604
S'instance'
p605
(dp606
g10
I01
sg11
F82.80221579177929
sg12
F0.71700039514538561
sg13
I18
sg14
g15
sg16
I01
sg17
(igamelib.math2d
Vector2
p607
(dp608
S'y'
F268.47457627118644
sS'x'
F935.59322033898297
sbsssbba(igamelib.misc
Beauty
p609
(igamelib.data
SaveData
p610
(dp611
g6
(dp612
S'instance'
p613
(dp614
g10
I01
sg11
F56.699592102783789
sg12
F1.7470570542678241
sg13
I18
sg14
g15
sg16
I01
sg17
(igamelib.math2d
Vector2
p615
(dp616
S'y'
F44.745762711864401
sS'x'
F669.15254237288127
sbsssbba(igamelib.misc
Markable
p617
(igamelib.data
SaveData
p618
(dp619
g6
(dp620
S'instance'
p621
(dp622
g10
I01
sg11
F-360
sg12
F1
sg13
I10
sg14
g558
sg16
I01
sg17
(igamelib.math2d
Vector2
p623
(dp624
S'y'
F288
sS'x'
F544
sbsssbba(igamelib.misc
Beauty
p625
(igamelib.data
SaveData
p626
(dp627
g6
(dp628
S'instance'
p629
(dp630
g10
I01
sg11
F301.57650079916232
sg12
F0.48055957999350996
sg13
I18
sg14
g15
sg16
I01
sg17
(igamelib.math2d
Vector2
p631
(dp632
S'y'
F586.77966101694915
sS'x'
F964.06779661016947
sbsssbba(igamelib.misc
Beauty
p633
(igamelib.data
SaveData
p634
(dp635
g6
(dp636
S'instance'
p637
(dp638
g10
I01
sg11
F311.21236581180693
sg12
F1.0326174895223457
sg13
I18
sg14
g15
sg16
I01
sg17
(igamelib.math2d
Vector2
p639
(dp640
S'y'
F93.559322033898297
sS'x'
F1078.9830508474577
sbsssbba(igamelib.misc
Beauty
p641
(igamelib.data
SaveData
p642
(dp643
g6
(dp644
S'instance'
p645
(dp646
g10
I01
sg11
F306.44459294781677
sg12
F1.9339662736786283
sg13
I18
sg14
g15
sg16
I01
sg17
(igamelib.math2d
Vector2
p647
(dp648
S'y'
F524.74576271186436
sS'x'
F1089.1525423728813
sbsssbba(igamelib.misc
Beauty
p649
(igamelib.data
SaveData
p650
(dp651
g6
(dp652
S'instance'
p653
(dp654
g10
I01
sg11
F124.92534894577885
sg12
F1.456081452532074
sg13
I18
sg14
g15
sg16
I01
sg17
(igamelib.math2d
Vector2
p655
(dp656
S'y'
F248.13559322033896
sS'x'
F865.42372881355925
sbsssbba(igamelib.misc
Beauty
p657
(igamelib.data
SaveData
p658
(dp659
g6
(dp660
S'instance'
p661
(dp662
g10
I01
sg11
F234.03869028210309
sg12
F0.49453657000319512
sg13
I18
sg14
g15
sg16
I01
sg17
(igamelib.math2d
Vector2
p663
(dp664
S'y'
F191.18644067796609
sS'x'
F206.44067796610167
sbsssbba(igamelib.misc
Beauty
p665
(igamelib.data
SaveData
p666
(dp667
g6
(dp668
S'instance'
p669
(dp670
g10
I01
sg11
F319.59660220847979
sg12
F0.6846716745783501
sg13
I18
sg14
g15
sg16
I01
sg17
(igamelib.math2d
Vector2
p671
(dp672
S'y'
F332.5423728813559
sS'x'
F45.762711864406775
sbsssbba(igamelib.misc
Beauty
p673
(igamelib.data
SaveData
p674
(dp675
g6
(dp676
S'instance'
p677
(dp678
g10
I01
sg11
F186.45206832006386
sg12
F1.200350039564609
sg13
I18
sg14
g15
sg16
I01
sg17
(igamelib.math2d
Vector2
p679
(dp680
S'y'
F674.23728813559319
sS'x'
F158.64406779661016
sbsssbba(igamelib.misc
Beauty
p681
(igamelib.data
SaveData
p682
(dp683
g6
(dp684
S'instance'
p685
(dp686
g10
I01
sg11
F19.225906080530333
sg12
F1.8845891220300799
sg13
I18
sg14
g15
sg16
I01
sg17
(igamelib.math2d
Vector2
p687
(dp688
S'y'
F683.38983050847457
sS'x'
F86.440677966101688
sbsssbba(igamelib.misc
Beauty
p689
(igamelib.data
SaveData
p690
(dp691
g6
(dp692
S'instance'
p693
(dp694
g10
I01
sg11
F192.93455416456308
sg12
F0.73184103703329761
sg13
I18
sg14
g15
sg16
I01
sg17
(igamelib.math2d
Vector2
p695
(dp696
S'y'
F552.2033898305084
sS'x'
F1059.6610169491526
sbsssbba(igamelib.misc
Beauty
p697
(igamelib.data
SaveData
p698
(dp699
g6
(dp700
S'instance'
p701
(dp702
g10
I01
sg11
F143.12617754292037
sg12
F1.4155665256938275
sg13
I18
sg14
g15
sg16
I01
sg17
(igamelib.math2d
Vector2
p703
(dp704
S'y'
F677.28813559322032
sS'x'
F825.7627118644067
sbsssbba(igamelib.misc
Beauty
p705
(igamelib.data
SaveData
p706
(dp707
g6
(dp708
S'instance'
p709
(dp710
g10
I01
sg11
F240.2020643731621
sg12
F0.9714220301498282
sg13
I18
sg14
g15
sg16
I01
sg17
(igamelib.math2d
Vector2
p711
(dp712
S'y'
F617.28813559322032
sS'x'
F980.33898305084745
sbsssbba(igamelib.misc
Markable
p713
(igamelib.data
SaveData
p714
(dp715
g6
(dp716
S'instance'
p717
(dp718
g10
I01
sg11
F-360
sg12
F1
sg13
I10
sg14
g106
sg16
I01
sg17
(igamelib.math2d
Vector2
p719
(dp720
S'y'
F352
sS'x'
F544
sbsssbba(igamelib.buildings
HQ
p721
(igamelib.data
SaveData
p722
(dp723
g6
(dp724
S'instance'
p725
(dp726
g10
I01
sg17
(igamelib.math2d
Vector2
p727
(dp728
S'y'
F544
sS'x'
F672
sbsg11
F0
sg16
I01
sssbba(igamelib.misc
Beauty
p729
(igamelib.data
SaveData
p730
(dp731
g6
(dp732
S'instance'
p733
(dp734
g10
I01
sg11
F187.19193802999254
sg12
F0.99927823636278523
sg13
I18
sg14
g15
sg16
I01
sg17
(igamelib.math2d
Vector2
p735
(dp736
S'y'
F29.491525423728813
sS'x'
F273.5593220338983
sbsssbba(igamelib.misc
Beauty
p737
(igamelib.data
SaveData
p738
(dp739
g6
(dp740
S'instance'
p741
(dp742
g10
I01
sg11
F117.01751207289067
sg12
F0.89285954096982323
sg13
I18
sg14
g15
sg16
I01
sg17
(igamelib.math2d
Vector2
p743
(dp744
S'y'
F652.88135593220341
sS'x'
F34.576271186440678
sbsssbba(igamelib.misc
Beauty
p745
(igamelib.data
SaveData
p746
(dp747
g6
(dp748
S'instance'
p749
(dp750
g10
I01
sg11
F208.33424564977142
sg12
F0.67295656005571436
sg13
I18
sg14
g15
sg16
I01
sg17
(igamelib.math2d
Vector2
p751
(dp752
S'y'
F480
sS'x'
F167.79661016949152
sbsssbba(igamelib.misc
Beauty
p753
(igamelib.data
SaveData
p754
(dp755
g6
(dp756
S'instance'
p757
(dp758
g10
I01
sg11
F114.41661410344003
sg12
F1.1371144317326389
sg13
I18
sg14
g15
sg16
I01
sg17
(igamelib.math2d
Vector2
p759
(dp760
S'y'
F120
sS'x'
F113.89830508474576
sbsssbba(igamelib.misc
Beauty
p761
(igamelib.data
SaveData
p762
(dp763
g6
(dp764
S'instance'
p765
(dp766
g10
I01
sg11
F216.70849435144117
sg12
F0.6374793554922793
sg13
I18
sg14
g15
sg16
I01
sg17
(igamelib.math2d
Vector2
p767
(dp768
S'y'
F646.77966101694915
sS'x'
F432.20338983050846
sbsssbba(igamelib.misc
Beauty
p769
(igamelib.data
SaveData
p770
(dp771
g6
(dp772
S'instance'
p773
(dp774
g10
I01
sg11
F219.36068332973809
sg12
F0.95486564147709263
sg13
I18
sg14
g15
sg16
I01
sg17
(igamelib.math2d
Vector2
p775
(dp776
S'y'
F287.79661016949149
sS'x'
F86.440677966101688
sbsssbba(igamelib.misc
Beauty
p777
(igamelib.data
SaveData
p778
(dp779
g6
(dp780
S'instance'
p781
(dp782
g10
I01
sg11
F94.452047221619367
sg12
F0.71953441191136791
sg13
I18
sg14
g15
sg16
I01
sg17
(igamelib.math2d
Vector2
p783
(dp784
S'y'
F365.08474576271186
sS'x'
F97.627118644067792
sbsssbba(igamelib.misc
Beauty
p785
(igamelib.data
SaveData
p786
(dp787
g6
(dp788
S'instance'
p789
(dp790
g10
I01
sg11
F123.70167854794727
sg12
F1.184547944839945
sg13
I18
sg14
g15
sg16
I01
sg17
(igamelib.math2d
Vector2
p791
(dp792
S'y'
F680.33898305084745
sS'x'
F544.06779661016947
sbsssbba(igamelib.misc
Beauty
p793
(igamelib.data
SaveData
p794
(dp795
g6
(dp796
S'instance'
p797
(dp798
g10
I01
sg11
F248.21573726886086
sg12
F0.47438594408925167
sg13
I18
sg14
g15
sg16
I01
sg17
(igamelib.math2d
Vector2
p799
(dp800
S'y'
F492.20338983050846
sS'x'
F986.4406779661017
sbsssbba(igamelib.misc
Beauty
p801
(igamelib.data
SaveData
p802
(dp803
g6
(dp804
S'instance'
p805
(dp806
g10
I01
sg11
F128.56850162274822
sg12
F1.2666620473142487
sg13
I18
sg14
g15
sg16
I01
sg17
(igamelib.math2d
Vector2
p807
(dp808
S'y'
F689.49152542372883
sS'x'
F906.10169491525414
sbsssbba(igamelib.misc
Beauty
p809
(igamelib.data
SaveData
p810
(dp811
g6
(dp812
S'instance'
p813
(dp814
g10
I01
sg11
F183.36332703564034
sg12
F1.7314487115309543
sg13
I18
sg14
g15
sg16
I01
sg17
(igamelib.math2d
Vector2
p815
(dp816
S'y'
F31.525423728813557
sS'x'
F202.37288135593221
sbsssbba(igamelib.misc
Markable
p817
(igamelib.data
SaveData
p818
(dp819
g6
(dp820
S'instance'
p821
(dp822
g10
I01
sg11
F-270
sg12
F1
sg13
I10
sg14
g558
sg16
I01
sg17
(igamelib.math2d
Vector2
p823
(dp824
S'y'
F352
sS'x'
F608
sbsssbba(igamelib.misc
Beauty
p825
(igamelib.data
SaveData
p826
(dp827
g6
(dp828
S'instance'
p829
(dp830
g10
I01
sg11
F195.51002709042899
sg12
F1.2400475611618251
sg13
I18
sg14
g15
sg16
I01
sg17
(igamelib.math2d
Vector2
p831
(dp832
S'y'
F537.96610169491521
sS'x'
F262.37288135593218
sbsssbba(igamelib.misc
Beauty
p833
(igamelib.data
SaveData
p834
(dp835
g6
(dp836
S'instance'
p837
(dp838
g10
I01
sg11
F241.17865650156469
sg12
F0.62839680470316073
sg13
I18
sg14
g15
sg16
I01
sg17
(igamelib.math2d
Vector2
p839
(dp840
S'y'
F283.72881355932202
sS'x'
F1076.9491525423728
sbsssbba(igamelib.misc
Beauty
p841
(igamelib.data
SaveData
p842
(dp843
g6
(dp844
S'instance'
p845
(dp846
g10
I01
sg11
F286.96190641450255
sg12
F1.3090312976733824
sg13
I18
sg14
g15
sg16
I01
sg17
(igamelib.math2d
Vector2
p847
(dp848
S'y'
F47.796610169491522
sS'x'
F56.949152542372879
sbsssbba(igamelib.misc
Beauty
p849
(igamelib.data
SaveData
p850
(dp851
g6
(dp852
S'instance'
p853
(dp854
g10
I01
sg11
F10.910230735891243
sg12
F0.47433157358119005
sg13
I18
sg14
g15
sg16
I01
sg17
(igamelib.math2d
Vector2
p855
(dp856
S'y'
F429.15254237288133
sS'x'
F945.7627118644067
sbsssbba(igamelib.misc
Beauty
p857
(igamelib.data
SaveData
p858
(dp859
g6
(dp860
S'instance'
p861
(dp862
g10
I01
sg11
F332.76975524098219
sg12
F1.0873505868769586
sg13
I18
sg14
g15
sg16
I01
sg17
(igamelib.math2d
Vector2
p863
(dp864
S'y'
F356.94915254237287
sS'x'
F1069.8305084745762
sbsssbba(igamelib.misc
Beauty
p865
(igamelib.data
SaveData
p866
(dp867
g6
(dp868
S'instance'
p869
(dp870
g10
I01
sg11
F75.311816707905962
sg12
F0.6150784428591799
sg13
I18
sg14
g15
sg16
I01
sg17
(igamelib.math2d
Vector2
p871
(dp872
S'y'
F159.66101694915253
sS'x'
F150.50847457627117
sbsssbba(igamelib.misc
Beauty
p873
(igamelib.data
SaveData
p874
(dp875
g6
(dp876
S'instance'
p877
(dp878
g10
I01
sg11
F219.51606669280761
sg12
F1.4457702364669687
sg13
I18
sg14
g15
sg16
I01
sg17
(igamelib.math2d
Vector2
p879
(dp880
S'y'
F508.47457627118644
sS'x'
F1016.9491525423729
sbsssbba(igamelib.misc
Beauty
p881
(igamelib.data
SaveData
p882
(dp883
g6
(dp884
S'instance'
p885
(dp886
g10
I01
sg11
F153.12692588393026
sg12
F1.0011877133373304
sg13
I18
sg14
g15
sg16
I01
sg17
(igamelib.math2d
Vector2
p887
(dp888
S'y'
F49.83050847457627
sS'x'
F695.59322033898297
sbsssbba(igamelib.misc
Beauty
p889
(igamelib.data
SaveData
p890
(dp891
g6
(dp892
S'instance'
p893
(dp894
g10
I01
sg11
F273.32045142600987
sg12
F1.8654325254757584
sg13
I18
sg14
g15
sg16
I01
sg17
(igamelib.math2d
Vector2
p895
(dp896
S'y'
F305.08474576271186
sS'x'
F1002.7118644067796
sbsssbba(igamelib.misc
Markable
p897
(igamelib.data
SaveData
p898
(dp899
g6
(dp900
S'instance'
p901
(dp902
g10
I01
sg11
F0
sg12
F1
sg13
I10
sg14
g558
sg16
I01
sg17
(igamelib.math2d
Vector2
p903
(dp904
S'y'
F480
sS'x'
F672
sbsssbba(igamelib.misc
Beauty
p905
(igamelib.data
SaveData
p906
(dp907
g6
(dp908
S'instance'
p909
(dp910
g10
I01
sg11
F357.63409737191353
sg12
F1.8593530155492219
sg13
I18
sg14
g15
sg16
I01
sg17
(igamelib.math2d
Vector2
p911
(dp912
S'y'
F49.83050847457627
sS'x'
F372.20338983050846
sbsssbba(igamelib.misc
Beauty
p913
(igamelib.data
SaveData
p914
(dp915
g6
(dp916
S'instance'
p917
(dp918
g10
I01
sg11
F57.089000121441757
sg12
F0.62599022011009053
sg13
I18
sg14
g15
sg16
I01
sg17
(igamelib.math2d
Vector2
p919
(dp920
S'y'
F36.610169491525426
sS'x'
F1060.6779661016949
sbsssbba(igamelib.misc
Beauty
p921
(igamelib.data
SaveData
p922
(dp923
g6
(dp924
S'instance'
p925
(dp926
g10
I01
sg11
F260.77663954916039
sg12
F1.7936087442951272
sg13
I18
sg14
g15
sg16
I01
sg17
(igamelib.math2d
Vector2
p927
(dp928
S'y'
F154.57627118644066
sS'x'
F50.847457627118644
sbsssbba(igamelib.misc
Beauty
p929
(igamelib.data
SaveData
p930
(dp931
g6
(dp932
S'instance'
p933
(dp934
g10
I01
sg11
F270.03767202468396
sg12
F1.0335061840026376
sg13
I18
sg14
g15
sg16
I01
sg17
(igamelib.math2d
Vector2
p935
(dp936
S'y'
F652.88135593220341
sS'x'
F887.79661016949149
sbsssbba(igamelib.misc
Beauty
p937
(igamelib.data
SaveData
p938
(dp939
g6
(dp940
S'instance'
p941
(dp942
g10
I01
sg11
F35.778754240830011
sg12
F0.96827941076462132
sg13
I18
sg14
g15
sg16
I01
sg17
(igamelib.math2d
Vector2
p943
(dp944
S'y'
F77.288135593220332
sS'x'
F94.576271186440678
sbsssbba(igamelib.misc
Beauty
p945
(igamelib.data
SaveData
p946
(dp947
g6
(dp948
S'instance'
p949
(dp950
g10
I01
sg11
F109.74311710786021
sg12
F1.6141782591337541
sg13
I18
sg14
g15
sg16
I01
sg17
(igamelib.math2d
Vector2
p951
(dp952
S'y'
F273.5593220338983
sS'x'
F191.18644067796609
sbsssbba(igamelib.misc
Beauty
p953
(igamelib.data
SaveData
p954
(dp955
g6
(dp956
S'instance'
p957
(dp958
g10
I01
sg11
F89.608593087629203
sg12
F1.0677545829615389
sg13
I18
sg14
g15
sg16
I01
sg17
(igamelib.math2d
Vector2
p959
(dp960
S'y'
F202.37288135593221
sS'x'
F907.11864406779659
sbsssbba(igamelib.misc
Beauty
p961
(igamelib.data
SaveData
p962
(dp963
g6
(dp964
S'instance'
p965
(dp966
g10
I01
sg11
F359.44498757690729
sg12
F0.77904429956053023
sg13
I18
sg14
g15
sg16
I01
sg17
(igamelib.math2d
Vector2
p967
(dp968
S'y'
F169.83050847457628
sS'x'
F55.932203389830505
sbsssbba(igamelib.misc
Beauty
p969
(igamelib.data
SaveData
p970
(dp971
g6
(dp972
S'instance'
p973
(dp974
g10
I01
sg11
F145.22743068750788
sg12
F0.4710878996742548
sg13
I18
sg14
g15
sg16
I01
sg17
(igamelib.math2d
Vector2
p975
(dp976
S'y'
F684.40677966101691
sS'x'
F723.05084745762713
sbsssbbatRp977
.