((lp0
ccopy_reg
_reconstructor
p1
(cgamelib.vector
Vector
p2
c__builtin__
tuple
p3
(F440.0
F744.0
tp4
tp5
Rp6
ag1
(g2
g3
(F690.0
F542.0
tp7
tp8
Rp9
ag1
(g2
g3
(F1002.0
F758.0
tp10
tp11
Rp12
ag1
(g2
g3
(F1204.0
F540.0
tp13
tp14
Rp15
ag1
(g2
g3
(F1201.25
F308.75
tp16
tp17
Rp18
ag1
(g2
g3
(F914.0
F276.0
tp19
tp20
Rp21
ag1
(g2
g3
(F642.0
F278.0
tp22
tp23
Rp24
ag1
(g2
g3
(F440.0
F448.0
tp25
tp26
Rp27
ag1
(g2
g3
(F670.0
F756.0
tp28
tp29
Rp30
ag1
(g2
g3
(F308.0
F898.0
tp31
tp32
Rp33
ag1
(g2
g3
(F938.0
F450.0
tp34
tp35
Rp36
ag1
(g2
g3
(F785.1851851851851
F42.59259259259259
tp37
tp38
Rp39
ag1
(g2
g3
(F563.75
F125.0
tp40
tp41
Rp42
a(lp43
(lp44
g6
ag1
(g2
g3
(F538.0
F758.0
tp45
tp46
Rp47
ag30
aa(lp48
g30
ag1
(g2
g3
(F696.0
F652.0
tp49
tp50
Rp51
ag9
aa(lp52
g27
ag1
(g2
g3
(F318.0
F464.0
tp53
tp54
Rp55
ag1
(g2
g3
(F286.0
F624.0
tp56
tp57
Rp58
ag1
(g2
g3
(F324.0
F710.0
tp59
tp60
Rp61
ag6
aa(lp62
g12
ag1
(g2
g3
(F1132.0
F756.0
tp63
tp64
Rp65
ag1
(g2
g3
(F1228.0
F692.0
tp66
tp67
Rp68
ag15
aa(lp69
g9
ag1
(g2
g3
(F766.0
F542.0
tp70
tp71
Rp72
ag1
(g2
g3
(F858.0
F620.0
tp73
tp74
Rp75
ag1
(g2
g3
(F890.0
F732.0
tp76
tp77
Rp78
ag12
aa(lp79
g33
ag1
(g2
g3
(F408.0
F890.0
tp80
tp81
Rp82
ag6
aa(lp83
g36
ag1
(g2
g3
(F1022.0
F536.0
tp84
tp85
Rp86
ag15
aa(lp87
g15
ag1
(g2
g3
(F1206.0
F424.0
tp88
tp89
Rp90
ag18
aa(lp91
g27
ag1
(g2
g3
(F440.0
F360.0
tp92
tp93
Rp94
ag1
(g2
g3
(F508.0
F292.0
tp95
tp96
Rp97
ag24
aa(lp98
g24
ag1
(g2
g3
(F774.0
F246.0
tp99
tp100
Rp101
ag21
aa(lp102
g21
ag1
(g2
g3
(F1062.0
F302.0
tp103
tp104
Rp105
ag18
aa(lp106
g39
ag1
(g2
g3
(F685.0
F180.0
tp107
tp108
Rp109
ag24
aa(lp110
g39
ag1
(g2
g3
(F642.0
F90.0
tp111
tp112
Rp113
ag42
aa(dp114
g6
Voutsidetower
p115
sg33
Vtower
p116
sg18
Vfield1
p117
sg42
Vportlab
p118
sg36
Vact1lab
p119
sg9
Vforest2
p120
sg30
Vforest1
p121
sg39
Vport
p122
sg21
Vfield2
p123
sg15
Vclearing
p124
sg24
Vfield3
p125
sg27
Vvillage
p126
sg12
Vforest3
p127
stp128
.