((lp0
ccopy_reg
_reconstructor
p1
(cgamelib.vector
Vector
p2
c__builtin__
tuple
p3
(F1390.0
F550.0
tp4
tp5
Rp6
ag1
(g2
g3
(F1458.0
F360.0
tp7
tp8
Rp9
ag1
(g2
g3
(F1228.0
F236.0
tp10
tp11
Rp12
ag1
(g2
g3
(F930.0
F100.0
tp13
tp14
Rp15
ag1
(g2
g3
(F886.0
F330.0
tp16
tp17
Rp18
ag1
(g2
g3
(F642.0
F134.0
tp19
tp20
Rp21
ag1
(g2
g3
(F372.0
F98.0
tp22
tp23
Rp24
ag1
(g2
g3
(F250.0
F424.0
tp25
tp26
Rp27
ag1
(g2
g3
(F134.0
F178.0
tp28
tp29
Rp30
ag1
(g2
g3
(F116.0
F860.0
tp31
tp32
Rp33
ag1
(g2
g3
(F496.0
F572.0
tp34
tp35
Rp36
ag1
(g2
g3
(F728.0
F548.0
tp37
tp38
Rp39
ag1
(g2
g3
(F428.0
F902.0
tp40
tp41
Rp42
ag1
(g2
g3
(F782.0
F898.0
tp43
tp44
Rp45
ag1
(g2
g3
(F1032.0
F802.0
tp46
tp47
Rp48
ag1
(g2
g3
(F1422.5
F915.0
tp49
tp50
Rp51
a(lp52
(lp53
g45
ag1
(g2
g3
(F998.0
F944.0
tp54
tp55
Rp56
ag1
(g2
g3
(F1212.0
F958.0
tp57
tp58
Rp59
ag51
aa(lp60
g48
ag1
(g2
g3
(F936.0
F818.0
tp61
tp62
Rp63
ag1
(g2
g3
(F882.0
F852.0
tp64
tp65
Rp66
ag45
aa(lp67
g45
ag1
(g2
g3
(F598.0
F930.0
tp68
tp69
Rp70
ag42
aa(lp71
g42
ag1
(g2
g3
(F272.0
F904.0
tp72
tp73
Rp74
ag33
aa(lp75
g33
ag1
(g2
g3
(F200.0
F724.0
tp76
tp77
Rp78
ag1
(g2
g3
(F388.0
F664.0
tp79
tp80
Rp81
ag36
aa(lp82
g36
ag39
aa(lp83
g27
ag1
(g2
g3
(F22.0
F584.0
tp84
tp85
Rp86
ag1
(g2
g3
(F48.0
F810.0
tp87
tp88
Rp89
ag33
aa(lp90
g27
ag1
(g2
g3
(F216.0
F306.0
tp91
tp92
Rp93
ag30
aa(lp94
g27
ag1
(g2
g3
(F318.0
F398.0
tp95
tp96
Rp97
ag1
(g2
g3
(F300.0
F220.0
tp98
tp99
Rp100
ag24
aa(lp101
g24
ag21
aa(lp102
g21
ag18
aa(lp103
g18
ag1
(g2
g3
(F820.0
F408.0
tp104
tp105
Rp106
ag1
(g2
g3
(F762.0
F500.0
tp107
tp108
Rp109
ag39
aa(lp110
g18
ag1
(g2
g3
(F1016.0
F304.0
tp111
tp112
Rp113
ag1
(g2
g3
(F1100.0
F252.0
tp114
tp115
Rp116
ag12
aa(lp117
g12
ag1
(g2
g3
(F1070.0
F154.0
tp118
tp119
Rp120
ag1
(g2
g3
(F992.0
F146.0
tp121
tp122
Rp123
ag15
aa(lp124
g12
ag1
(g2
g3
(F1352.0
F330.0
tp125
tp126
Rp127
ag9
aa(lp128
g9
ag6
aa(dp129
g36
Vnests2
p130
sg33
Vnests1
p131
sg9
Voutsidetower
p132
sg30
Voutcroplab
p133
sg12
Vprairie
p134
sg39
Vcabin
p135
sg27
Voutcrop
p136
sg21
Vhills2
p137
sg42
Vmountain1
p138
sg6
Vtower
p139
sg51
Vvolcano
p140
sg18
Vhills1
p141
sg48
Vmountainlab
p142
sg24
Vhills3
p143
sg15
Vprairielab
p144
sg45
Vmountain2
p145
stp146
.