((lp0
ccopy_reg
_reconstructor
p1
(cgamelib.vector
Vector
p2
c__builtin__
tuple
p3
(F1148.0
F154.0
tp4
tp5
Rp6
ag1
(g2
g3
(F702.0
F276.0
tp7
tp8
Rp9
ag1
(g2
g3
(F1416.0
F550.0
tp10
tp11
Rp12
ag1
(g2
g3
(F962.0
F436.0
tp13
tp14
Rp15
ag1
(g2
g3
(F880.0
F626.0
tp16
tp17
Rp18
ag1
(g2
g3
(F1234.0
F648.0
tp19
tp20
Rp21
ag1
(g2
g3
(F1048.0
F796.0
tp22
tp23
Rp24
ag1
(g2
g3
(F864.0
F834.0
tp25
tp26
Rp27
ag1
(g2
g3
(F668.0
F840.0
tp28
tp29
Rp30
ag1
(g2
g3
(F504.0
F664.0
tp31
tp32
Rp33
ag1
(g2
g3
(F522.0
F888.0
tp34
tp35
Rp36
ag1
(g2
g3
(F1360.0
F170.0
tp37
tp38
Rp39
ag1
(g2
g3
(F940.0
F178.0
tp40
tp41
Rp42
a(lp43
(lp44
g39
ag1
(g2
g3
(F1448.0
F262.0
tp45
tp46
Rp47
ag1
(g2
g3
(F1466.0
F420.0
tp48
tp49
Rp50
ag12
aa(lp51
g9
ag1
(g2
g3
(F808.0
F216.0
tp52
tp53
Rp54
ag42
aa(lp55
g42
ag1
(g2
g3
(F1048.0
F154.0
tp56
tp57
Rp58
ag6
aa(lp59
g6
ag1
(g2
g3
(F1256.0
F162.0
tp60
tp61
Rp62
ag39
aa(lp63
g15
ag1
(g2
g3
(F1040.0
F466.0
tp64
tp65
Rp66
ag1
(g2
g3
(F1162.0
F506.0
tp67
tp68
Rp69
ag1
(g2
g3
(F1166.0
F608.0
tp70
tp71
Rp72
ag21
aa(lp73
g42
ag1
(g2
g3
(F988.0
F316.0
tp74
tp75
Rp76
ag15
aa(lp77
g18
ag1
(g2
g3
(F908.0
F536.0
tp78
tp79
Rp80
ag15
aa(lp81
g18
ag1
(g2
g3
(F990.0
F710.0
tp82
tp83
Rp84
ag24
aa(lp85
g27
ag1
(g2
g3
(F960.0
F824.0
tp86
tp87
Rp88
ag24
aa(lp89
g30
ag1
(g2
g3
(F762.0
F838.0
tp90
tp91
Rp92
ag27
aa(lp93
g33
ag1
(g2
g3
(F650.0
F748.0
tp94
tp95
Rp96
ag30
aa(lp97
g36
ag1
(g2
g3
(F594.0
F854.0
tp98
tp99
Rp100
ag30
aa(dp101
g39
Vbeach
p102
sg24
Vshore4
p103
sg30
Vshore6
p104
sg42
Vshore2
p105
sg12
Vbeachlab
p106
sg21
Vjunglelab
p107
sg27
Vshore5
p108
sg9
Vshore3
p109
sg15
Vjungle1
p110
sg36
Vmarina
p111
sg33
Vshorelab
p112
sg6
Vshore1
p113
sg18
Vjungle2
p114
stp115
.