((lp0
ccopy_reg
_reconstructor
p1
(cgamelib.vector
Vector
p2
c__builtin__
tuple
p3
(F409.6
F229.376
tp4
tp5
Rp6
ag1
(g2
g3
(F739.328
F313.344
tp7
tp8
Rp9
ag1
(g2
g3
(F428.032
F557.056
tp10
tp11
Rp12
ag1
(g2
g3
(F501.76
F376.832
tp13
tp14
Rp15
ag1
(g2
g3
(F585.728
F251.904
tp16
tp17
Rp18
ag1
(g2
g3
(F595.968
F466.944
tp19
tp20
Rp21
a(lp22
(lp23
g6
ag1
(g2
g3
(F444.416
F434.176
tp24
tp25
Rp26
ag1
(g2
g3
(F569.344
F501.76
tp27
tp28
Rp29
ag1
(g2
g3
(F778.24
F481.28
tp30
tp31
Rp32
ag1
(g2
g3
(F651.264
F397.312
tp33
tp34
Rp35
ag9
aa(lp36
g12
ag1
(g2
g3
(F440.32
F524.288
tp37
tp38
Rp39
ag1
(g2
g3
(F407.552
F452.608
tp40
tp41
Rp42
ag1
(g2
g3
(F391.168
F374.784
tp43
tp44
Rp45
ag1
(g2
g3
(F352.256
F313.344
tp46
tp47
Rp48
ag1
(g2
g3
(F380.928
F294.912
tp49
tp50
Rp51
ag6
aa(lp52
g15
ag1
(g2
g3
(F583.68
F403.456
tp53
tp54
Rp55
ag1
(g2
g3
(F612.352
F423.936
tp56
tp57
Rp58
ag1
(g2
g3
(F641.024
F419.84
tp59
tp60
Rp61
ag1
(g2
g3
(F651.264
F397.312
tp62
tp63
Rp64
ag9
aa(lp65
g6
ag1
(g2
g3
(F495.616
F325.632
tp66
tp67
Rp68
ag1
(g2
g3
(F571.392
F368.64
tp69
tp70
Rp71
ag15
aa(lp72
g18
ag1
(g2
g3
(F602.112
F344.064
tp73
tp74
Rp75
ag1
(g2
g3
(F571.392
F366.592
tp76
tp77
Rp78
ag15
aa(lp79
g21
ag1
(g2
g3
(F509.952
F499.712
tp80
tp81
Rp82
ag1
(g2
g3
(F501.76
F569.344
tp83
tp84
Rp85
ag1
(g2
g3
(F448.512
F595.968
tp86
tp87
Rp88
ag12
aa(lp89
g21
ag1
(g2
g3
(F512.0
F417.792
tp90
tp91
Rp92
ag15
aa(dp93
g6
Vtown
p94
sg12
Vvillage
p95
sg15
Vfork
p96
sg9
Vdungeon
p97
sg21
Vsecret
p98
sg18
Vlab
p99
stp100
.