((lp0
ccopy_reg
_reconstructor
p1
(cgamelib.vector
Vector
p2
c__builtin__
tuple
p3
(F244.0
F176.0
tp4
tp5
Rp6
ag1
(g2
g3
(F162.5
F802.5
tp7
tp8
Rp9
ag1
(g2
g3
(F314.0
F798.0
tp10
tp11
Rp12
ag1
(g2
g3
(F242.0
F352.0
tp13
tp14
Rp15
ag1
(g2
g3
(F246.0
F502.0
tp16
tp17
Rp18
ag1
(g2
g3
(F244.0
F654.0
tp19
tp20
Rp21
a(lp22
(lp23
g9
ag12
aa(lp24
g9
ag1
(g2
g3
(F188.75
F761.25
tp25
tp26
Rp27
ag1
(g2
g3
(F116.25
F656.25
tp28
tp29
Rp30
ag1
(g2
g3
(F166.25
F660.0
tp31
tp32
Rp33
ag1
(g2
g3
(F225.0
F662.5
tp34
tp35
Rp36
ag21
aa(lp37
g18
ag1
(g2
g3
(F227.5
F510.0
tp38
tp39
Rp40
ag1
(g2
g3
(F175.0
F508.75
tp41
tp42
Rp43
ag1
(g2
g3
(F121.25
F512.5
tp44
tp45
Rp46
ag1
(g2
g3
(F176.25
F558.75
tp47
tp48
Rp49
ag1
(g2
g3
(F206.25
F605.0
tp50
tp51
Rp52
ag1
(g2
g3
(F237.5
F635.0
tp53
tp54
Rp55
ag21
aa(lp56
g15
ag1
(g2
g3
(F228.75
F358.75
tp57
tp58
Rp59
ag1
(g2
g3
(F173.75
F361.25
tp60
tp61
Rp62
ag1
(g2
g3
(F120.0
F360.0
tp63
tp64
Rp65
ag1
(g2
g3
(F186.25
F417.5
tp66
tp67
Rp68
ag1
(g2
g3
(F201.25
F446.25
tp69
tp70
Rp71
ag1
(g2
g3
(F246.25
F480.0
tp72
tp73
Rp74
ag18
aa(lp75
g6
ag1
(g2
g3
(F228.75
F187.5
tp76
tp77
Rp78
ag1
(g2
g3
(F176.25
F178.75
tp79
tp80
Rp81
ag1
(g2
g3
(F125.0
F177.5
tp82
tp83
Rp84
ag1
(g2
g3
(F188.75
F258.75
tp85
tp86
Rp87
ag1
(g2
g3
(F207.5
F303.75
tp88
tp89
Rp90
ag1
(g2
g3
(F245.0
F332.5
tp91
tp92
Rp93
ag15
aa(dp94
g15
Vfloor1
p95
sg9
Vcentre
p96
sg18
Vfloor2
p97
sg12
Vworkbench
p98
sg21
Vigor
p99
sg6
Vexit
p100
stp101
.